******************************************************************************
               TMS320C6x Linker PC v8.2.3                      
******************************************************************************
>> Linked Wed Sep 12 13:39:24 2018

OUTPUT FILE NAME:   <MCASP_test.out>
ENTRY POINT SYMBOL: "_c_int00"  address: c3055e80


MEMORY CONFIGURATION

         name            origin    length      used     unused   attr    fill
----------------------  --------  ---------  --------  --------  ----  --------
  IROM                  11700000   00100000  00000000  00100000  R  X
  IRAM                  11800000   00040000  00000000  00040000  RW X
  L3_CBA_RAM            80000000   00020000  00000000  00020000  RW X
  DDR                   c3000000   01000000  000a02ac  00f5fd54  RWIX


SEGMENT ALLOCATION MAP

run origin  load origin   length   init length attrs members
----------  ----------- ---------- ----------- ----- -------
c3000000    c3000000    00034d00   00000000    rw-
  c3000000    c3000000    00034cea   00000000    rw- .far
  c3034cf0    c3034cf0    00000010   00000000    rw- .fardata.1
c3034d00    c3034d00    00026a40   00026a40    r-x
  c3034d00    c3034d00    00026a40   00026a40    r-x .text
c305b740    c305b740    0003fce8   00000000    rw-
  c305b740    c305b740    00020000   00000000    rw- .stack
  c307b740    c307b740    0001fce8   00000000    rw- .fardata.2
c309b428    c309b428    00003670   00003670    r--
  c309b428    c309b428    000034d6   000034d6    r-- .const
  c309e900    c309e900    00000198   00000198    r-- .switch
c309ea98    c309ea98    00000120   00000000    rw-
  c309ea98    c309ea98    00000120   00000000    rw- .cio
c309ec00    c309ec00    00000200   00000200    r-x
  c309ec00    c309ec00    00000200   00000200    r-x .vecs
c309ee00    c309ee00    00000090   00000000    rw-
  c309ee00    c309ee00    00000028   00000000    rw- .bss
  c309ee28    c309ee28    00000068   00000000    rw- .neardata
c309ee90    c309ee90    00000014   00000000    r--
  c309ee90    c309ee90    00000014   00000000    r-- .rodata
c309eea8    c309eea8    00001458   00001458    r--
  c309eea8    c309eea8    00001458   00001458    r-- .cinit


SECTION ALLOCATION MAP

 output                                  attributes/
section   page    origin      length       input sections
--------  ----  ----------  ----------   ----------------
.stack     0    c305b740    00020000     UNINITIALIZED
                  c305b740    00000008     boot.ae674 : boot.oe674 (.stack)
                  c305b748    0001fff8     --HOLE--

.bss       0    c309ee00    00000028     UNINITIALIZED
                  c309ee00    00000004     (.common:dsp_num)
                  c309ee04    00000004     (.common:hAicChannel)
                  c309ee08    00000004     (.common:hAicDev)
                  c309ee0c    00000004     (.common:hEdma)
                  c309ee10    00000004     (.common:hMcaspDev)
                  c309ee14    00000004     (.common:hMcaspRxChan)
                  c309ee18    00000004     (.common:hMcaspTxChan)
                  c309ee1c    00000004     (.common:region_id)
                  c309ee20    00000004     (.common:semR)
                  c309ee24    00000004     (.common:semT)

.neardata 
*          0    c309ee28    00000068     UNINITIALIZED
                  c309ee28    00000028     ADC_sampletask.obj (.neardata)
                  c309ee50    00000018     ti.osal.ae674 : Utils_tirtos.oe674 (.neardata)
                  c309ee68    00000010     codec_if.obj (.neardata)
                  c309ee78    00000008     edma3_lld_drv_sample.ae674 : sample_omapl138_int_reg.oe674 (.neardata)
                  c309ee80    00000008     ti.drv.mcasp.ae674 : mcasp_drv.oe674 (.neardata)
                  c309ee88    00000004     ti.drv.i2c.ae674 : I2C_drv.oe674 (.neardata)
                  c309ee8c    00000004     ti.drv.uart.ae674 : UART_drv.oe674 (.neardata)

.rodata    0    c309ee90    00000014     UNINITIALIZED
                  c309ee90    00000008     app_mcasp_pe674.oe674 (.rodata)
                  c309ee98    00000008     edma3_lld_drv_sample.ae674 : sample_omapl138_cfg.oe674 (.rodata)
                  c309eea0    00000004     edma3_lld_rm.ae674 : edma3_rm_gbl_data.oe674 (.rodata)

.cinit     0    c309eea8    00001458     
                  c309eea8    000013c3     (.cinit..fardata.2.load) [load image, compression = rle]
                  c30a026b    0000001a     (.cinit..rodata.load) [load image, compression = rle]
                  c30a0285    00000016     (.cinit..fardata.1.load) [load image, compression = rle]
                  c30a029b    00000015     (.cinit..neardata.load) [load image, compression = rle]
                  c30a02b0    0000000d     (.cinit..far.load) [load image, compression = rle]
                  c30a02bd    00000009     (.cinit..bss.load) [load image, compression = rle]
                  c30a02c6    00000002     --HOLE-- [fill = 0]
                  c30a02c8    00000008     (__TI_handler_table)
                  c30a02d0    00000030     (__TI_cinit_table)

.init_array 
*          0    c3000000    00000000     UNINITIALIZED

.far       0    c3000000    00034cea     UNINITIALIZED
                  c3000000    00030d40     (.common:ti_sysbios_heaps_HeapMem_Instance_State_0_buf__A)
                  c3030d40    00002000     (.common:ti_sysbios_heaps_HeapMem_Instance_State_1_buf__A)
                  c3032d40    00001000     app_mcasp_pe674.oe674 (.far:taskStackSection)
                  c3033d40    00000360     (.common:Mcasp_Instances)
                  c30340a0    00000200     (.common:xdc_runtime_LoggerBuf_Instance_State_0_entryArr__A)
                  c30342a0    00000200     (.common:xdc_runtime_SysMin_Module_State_0_outbuf__A)
                  c30344a0    00000198     (.common:UartObjects)
                  c3034638    00000140     (.common:__TI_tmpnams)
                  c3034778    000000b4     (.common:mcaspParams)
                  c303482c    00000004     --HOLE--
                  c3034830    00000098     (.common:I2cObjects)
                  c30348c8    00000088     (.common:Mcasp_loopDstBuf)
                  c3034950    00000088     (.common:Mcasp_loopSrcBuf)
                  c30349d8    00000088     (.common:Mcasp_muteBuf)
                  c3034a60    00000084     my_aic31.obj (.far:Aic31_Instances)
                  c3034ae4    00000004     --HOLE--
                  c3034ae8    00000044     (.common:Mcasp_deviceInstInfo)
                  c3034b2c    00000004     --HOLE--
                  c3034b30    00000040     (.common:rxFrame)
                  c3034b70    00000040     (.common:txFrame)
                  c3034bb0    00000024     (.common:params)
                  c3034bd4    00000020     (.common:eb)
                  c3034bf4    00000004     --HOLE--
                  c3034bf8    00000014     (.common:edma3_dma_ch_max_val)
                  c3034c0c    00000004     --HOLE--
                  c3034c10    00000014     (.common:edma3_link_ch_max_val)
                  c3034c24    00000004     --HOLE--
                  c3034c28    00000014     (.common:edma3_link_ch_min_val)
                  c3034c3c    00000004     --HOLE--
                  c3034c40    00000014     (.common:edma3_log_ch_max_val)
                  c3034c54    00000004     --HOLE--
                  c3034c58    00000014     (.common:edma3_qdma_ch_max_val)
                  c3034c6c    00000004     --HOLE--
                  c3034c70    00000014     (.common:edma3_qdma_ch_min_val)
                  c3034c84    00000004     --HOLE--
                  c3034c88    00000010     (.common:isrInstanceObject)
                  c3034c98    00000008     (.common:errCbStatusRcv)
                  c3034ca0    00000008     (.common:errCbStatusXmt)
                  c3034ca8    00000008     (.common:parmbuf)
                  c3034cb0    00000008     (.common:rxbuf)
                  c3034cb8    00000008     (.common:txbuf)
                  c3034cc0    00000008     (.common:uart_stdio)
                  c3034cc8    00000008     ti.drv.mcasp.ae674 : mcasp_drv.oe674 (.far:gHwiHandle$0)
                  c3034cd0    00000004     (.common:Aic31_deviceInstInfo)
                  c3034cd4    00000004     --HOLE--
                  c3034cd8    00000003     (.common:slaveData)
                  c3034cdb    00000005     --HOLE--
                  c3034ce0    00000002     (.common:inUse)
                  c3034ce2    00000006     --HOLE--
                  c3034ce8    00000002     my_aic31.obj (.far:inUse)

.fardata.1 
*          0    c3034cf0    00000010     UNINITIALIZED
                  c3034cf0    00000010     edma3_lld_rm.ae674 : edma3_rm_gbl_data.oe674 (.fardata:.edma3Globals:init)

.fardata.2 
*          0    c307b740    0001fce8     UNINITIALIZED
                  c307b740    0000df38     edma3_lld_drv.ae674 : edma3_drv_init.oe674 (.fardata:.edma3Globals:uninit)
                  c3089678    00007998     edma3_lld_rm.ae674 : edma3resmgr.oe674 (.fardata:.edma3Globals:uninit)
                  c3091010    000056e0                        : edma3_rm_gbl_data.oe674 (.fardata:.edma3Globals:uninit)
                  c30966f0    00000e38                        : edma3_omapl138_cfg.oe674 (.fardata:edma3GblCfgParams)
                  c3097528    00000d20                        : edma3_omapl138_cfg.oe674 (.fardata:defInstInitConfig)
                  c3098248    00000b40     ti.osal.ae674 : SemaphoreP_tirtos.oe674 (.fardata:gOsalSemPTiRtosPool$0)
                  c3098d88    00000a80     edma3_lld_drv_sample.ae674 : sample_omapl138_cfg.oe674 (.fardata:sampleInstInitConfig)
                  c3099808    000005b0                                : sample_omapl138_cfg.oe674 (.fardata:sampleEdma3GblCfgParams)
                  c3099db8    00000500     ti.osal.ae674 : HwiP_tirtos.oe674 (.fardata:gOsalHwiPTiRtosPool$0)
                  c309a2b8    00000400     app_mcasp_pe674.oe674 (.fardata:ti_sysbios_family_c64p_EventCombiner_Module__state__V)
                  c309a6b8    000001e0     rts6740_elf.lib : defs.obj (.fardata:_ftable)
                  c309a898    000000f0     mcasp_cfg.obj (.fardata:mcasp_chanparam)
                  c309a988    000000f0     ti.drv.uart.ae674 : UART_soc.oe674 (.fardata:uartInitCfg)
                  c309aa78    000000a0     rts6740_elf.lib : write.obj (.fardata:_stream)
                  c309ab18    00000098     app_mcasp_pe674.oe674 (.fardata:ti_sysbios_knl_Task_Object__table__V)
                  c309abb0    00000080     app_mcasp_pe674.oe674 (.fardata:ti_sysbios_knl_Swi_Module_State_0_readyQ__A)
                  c309ac30    00000080     app_mcasp_pe674.oe674 (.fardata:ti_sysbios_knl_Task_Module_State_0_readyQ__A)
                  c309acb0    00000078     rts6740_elf.lib : write.obj (.fardata:_device)
                  c309ad28    00000078     app_mcasp_pe674.oe674 (.fardata:ti_sysbios_family_c64p_Hwi_Object__table__V)
                  c309ada0    0000006c     app_mcasp_pe674.oe674 (.fardata:ti_sysbios_family_c64p_Hwi_Module__state__V)
                  c309ae0c    00000004     my_aic31.obj (.fardata:Aic31_module)
                  c309ae10    00000062     edma3_lld_rm.ae674 : edma3resmgr.oe674 (.fardata:.edma3Globals:init)
                  c309ae72    00000006     app_mcasp_pe674.oe674 (.fardata:xdc_runtime_LoggerBuf_Module__state__V)
                  c309ae78    00000060     app_mcasp_pe674.oe674 (.fardata:ti_sysbios_timers_timer64_Timer_Module_State_0_device__A)
                  c309aed8    00000050     app_mcasp_pe674.oe674 (.fardata:ti_sysbios_timers_timer64_Timer_Object__table__V)
                  c309af28    00000048     I2C_soc.obj (.fardata:i2cInitCfg)
                  c309af70    00000044     app_mcasp_pe674.oe674 (.fardata:ti_sysbios_knl_Task_Module__state__V)
                  c309afb4    00000004     rts6740_elf.lib : _lock.obj (.fardata:_lock)
                  c309afb8    00000040     edma3_lld_drv_sample.ae674 : sample_omapl138_cfg.oe674 (.fardata:ccXferCompInt)
                  c309aff8    00000040                                : sample_omapl138_cfg.oe674 (.fardata:hwIntTcErr)
                  c309b038    00000040                                : sample_omapl138_cfg.oe674 (.fardata:tcErrorInt)
                  c309b078    00000040     app_mcasp_pe674.oe674 (.fardata:ti_sysbios_gates_GateMutex_Object__table__V)
                  c309b0b8    00000030     app_mcasp_pe674.oe674 (.fardata:ti_sysbios_family_c64p_Exception_Module__state__V)
                  c309b0e8    00000030     app_mcasp_pe674.oe674 (.fardata:ti_sysbios_heaps_HeapMem_Object__table__V)
                  c309b118    00000030     app_mcasp_pe674.oe674 (.fardata:ti_sysbios_knl_Swi_Object__table__V)
                  c309b148    0000002c     ti.osal.ae674 : Utils_tirtos.oe674 (.fardata:gOsal_HwAttrs)
                  c309b174    0000002c     app_mcasp_pe674.oe674 (.fardata:ti_sysbios_knl_Clock_Module__state__V)
                  c309b1a0    00000028     mcasp_cfg.obj (.fardata:mcaspRcvSetup)
                  c309b1c8    00000028     mcasp_cfg.obj (.fardata:mcaspXmtSetup)
                  c309b1f0    00000024     app_mcasp_pe674.oe674 (.fardata:ti_sysbios_BIOS_Module__state__V)
                  c309b214    00000004     rts6740_elf.lib : _lock.obj (.fardata:_unlock)
                  c309b218    00000024     app_mcasp_pe674.oe674 (.fardata:xdc_runtime_LoggerBuf_Object__table__V)
                  c309b23c    00000004     rts6740_elf.lib : defs.obj (.fardata)
                  c309b240    00000020     edma3_lld_drv_sample.ae674 : sample_omapl138_int_reg.oe674 (.fardata:ptrEdma3TcIsrHandler)
                  c309b260    00000020     app_mcasp_pe674.oe674 (.fardata:ti_sysbios_io_DEV_Module_State_0_table__A)
                  c309b280    00000020     app_mcasp_pe674.oe674 (.fardata:ti_sysbios_timers_timer64_Timer_Module_State_0_gctrl__A)
                  c309b2a0    00000020     app_mcasp_pe674.oe674 (.fardata:ti_sysbios_timers_timer64_Timer_Module_State_0_handles__A)
                  c309b2c0    00000020     app_mcasp_pe674.oe674 (.fardata:ti_sysbios_timers_timer64_Timer_Module_State_0_intFreqs__A)
                  c309b2e0    00000020     app_mcasp_pe674.oe674 (.fardata:xdc_runtime_Error_IgnoreBlock)
                  c309b300    00000020     app_mcasp_pe674.oe674 (.fardata:xdc_runtime_System_Module_State_0_atexitHandlers__A)
                  c309b320    0000001c     app_mcasp_pe674.oe674 (.fardata:ti_sysbios_knl_Swi_Module__state__V)
                  c309b33c    00000018     app_mcasp_pe674.oe674 (.fardata:ti_sysbios_timers_timer64_Timer_Module__state__V)
                  c309b354    00000010     ADC_sampletask.obj (.fardata:AIC31_con8000)
                  c309b364    0000000c     rts6740_elf.lib : exit.obj (.fardata)
                  c309b370    0000000c     app_mcasp_pe674.oe674 (.fardata:xdc_runtime_SysMin_Module__state__V)
                  c309b37c    00000008     ti.drv.mcasp.ae674 : mcasp_drv.oe674 (.fardata:Mcasp_module)
                  c309b384    00000004     app_mcasp_pe674.oe674 (.fardata:ti_sysbios_family_c64p_Cache_Module__state__V)
                  c309b388    00000008     edma3_lld_drv_sample.ae674 : sample_omapl138_cfg.oe674 (.fardata:ccErrorInt)
                  c309b390    00000008                                : sample_omapl138_cfg.oe674 (.fardata:hwIntCcErr)
                  c309b398    00000008                                : sample_omapl138_cfg.oe674 (.fardata:hwIntXferComp)
                  c309b3a0    00000008                                : sample_omapl138_cfg.oe674 (.fardata:numEdma3Tc)
                  c309b3a8    00000008                                : sample_omapl138_cfg.oe674 (.fardata:semHandle)
                  c309b3b0    00000008     app_mcasp_pe674.oe674 (.fardata:ti_sysbios_family_c64p_Hwi_Module__root__V)
                  c309b3b8    00000008     app_mcasp_pe674.oe674 (.fardata:ti_sysbios_family_c64p_primus_TimerSupport_Module_State_0_suspSrc__A)
                  c309b3c0    00000008     app_mcasp_pe674.oe674 (.fardata:ti_sysbios_gates_GateHwi_Module__root__V)
                  c309b3c8    00000008     app_mcasp_pe674.oe674 (.fardata:ti_sysbios_gates_GateMutex_Module__root__V)
                  c309b3d0    00000008     app_mcasp_pe674.oe674 (.fardata:ti_sysbios_hal_Hwi_Object__table__V)
                  c309b3d8    00000008     app_mcasp_pe674.oe674 (.fardata:ti_sysbios_heaps_HeapMem_Module__root__V)
                  c309b3e0    00000008     app_mcasp_pe674.oe674 (.fardata:ti_sysbios_knl_Queue_Module__root__V)
                  c309b3e8    00000008     app_mcasp_pe674.oe674 (.fardata:ti_sysbios_knl_Semaphore_Module__root__V)
                  c309b3f0    00000008     app_mcasp_pe674.oe674 (.fardata:xdc_runtime_LoggerBuf_Module__root__V)
                  c309b3f8    00000008     app_mcasp_pe674.oe674 (.fardata:xdc_runtime_Registry_Module__state__V)
                  c309b400    00000008     app_mcasp_pe674.oe674 (.fardata:xdc_runtime_Startup_Module__state__V)
                  c309b408    00000008     app_mcasp_pe674.oe674 (.fardata:xdc_runtime_System_Module__state__V)
                  c309b410    00000004     app_mcasp_pe674.oe674 (.fardata:ti_sysbios_family_c64p_primus_TimerSupport_Module__state__V)
                  c309b414    00000004     app_mcasp_pe674.oe674 (.fardata:ti_sysbios_io_DEV_Module__state__V)
                  c309b418    00000004     app_mcasp_pe674.oe674 (.fardata:ti_sysbios_gates_GateHwi_Object__table__V)
                  c309b41c    00000004     app_mcasp_pe674.oe674 (.fardata:xdc_runtime_Memory_Module__state__V)
                  c309b420    00000004     app_mcasp_pe674.oe674 (.fardata:ti_sysbios_knl_Task_Module_State_0_idleTask__A)
                  c309b424    00000002     edma3_lld_drv.ae674 : edma3_drv_init.oe674 (.fardata:.edma3Globals:init)
                  c309b426    00000002     app_mcasp_pe674.oe674 (.fardata:xdc_runtime_Error_Module__state__V)

.vecs      0    c309ec00    00000200     
                  c309ec00    00000200     app_mcasp_pe674.oe674 (.vecs)

xdc.meta   0    c3000000    000000f8     COPY SECTION
                  c3000000    000000f8     app_mcasp_pe674.oe674 (xdc.meta)

.text      0    c3034d00    00026a40     
                  c3034d00    00001b60     my_aic31.obj (.text)
                  c3036860    00001540     ti.drv.mcasp.ae674 : mcasp_drv.oe674 (.text:mcaspCreateChan)
                  c3037da0    00001100                        : mcasp_edma.oe674 (.text:Mcasp_localEdmaChanPaRAMsetup)
                  c3038ea0    00000c40     edma3_lld_rm.ae674 : edma3resmgr.oe674 (.text:EDMA3_RM_allocResource)
                  c3039ae0    00000c20     edma3_lld_drv.ae674 : edma3_drv_basic.oe674 (.text:EDMA3_DRV_requestChannel)
                  c303a700    00000a40     ti.drv.i2c.ae674 : I2C_v0.oe674 (.text:I2C_v0_hwiFxn$0)
                  c303b140    00000980     ADC_sampletask.obj (.text)
                  c303bac0    000008e0     ti.drv.mcasp.ae674 : mcasp_edma.oe674 (.text:Mcasp_localEdmaCallback)
                  c303c3a0    000008a0     ti.targets.rts6000.ae674 : System.oe674 (.text:xdc_runtime_System_doPrint__I)
                  c303cc40    000007c0     sysbios.ae674 : BIOS.obj (.text:ti_sysbios_knl_Semaphore_pend__E)
                  c303d400    00000780                   : BIOS.obj (.text:ti_sysbios_family_c64p_Exception_handler__I)
                  c303db80    000006e0     edma3_lld_rm.ae674 : edma3resmgr.oe674 (.text:edma3CCErrHandler)
                  c303e260    000006e0     sysbios.ae674 : BIOS.obj (.text:ti_sysbios_timers_timer64_Timer_Module_startup__E)
                  c303e940    000006c0     ti.drv.uart.ae674 : UART_v0.oe674 (.text:UART_v0_hwiIntFxn$0)
                  c303f000    00000680     edma3_lld_rm.ae674 : edma3resmgr.oe674 (.text:EDMA3_RM_open)
                  c303f680    00000640     ti.drv.i2c.ae674 : I2C_v0.oe674 (.text:I2C_primeTransfer_v0$0)
                  c303fcc0    00000640     my_aic3106_if.obj (.text)
                  c3040300    00000640     sysbios.ae674 : BIOS.obj (.text:ti_sysbios_heaps_HeapMem_allocUnprotected__E)
                  c3040940    000005c0     ti.drv.mcasp.ae674 : mcasp_drv.oe674 (.text:mcaspBindDev)
                  c3040f00    000005a0     sysbios.ae674 : BIOS.obj (.text:ti_sysbios_heaps_HeapMem_freeUnprotected__E)
                  c30414a0    00000560     ti.drv.mcasp.ae674 : mcasp_drv.oe674 (.text:Mcasp_localAbortReset)
                  c3041a00    00000560                        : mcasp_drv.oe674 (.text:mcaspIsrOutput)
                  c3041f60    00000520                        : mcasp_drv.oe674 (.text:mcaspIsrInput)
                  c3042480    000004e0                        : mcasp_edma.oe674 (.text:Mcasp_localGetIndicesSyncType)
                  c3042960    000004c0     edma3_lld_rm.ae674 : edma3resmgr.oe674 (.text:edma3TCErrHandler)
                  c3042e20    000004c0     sysbios.ae674 : BIOS.obj (.text:ti_sysbios_knl_Task_sleep__E)
                  c30432e0    00000460     ti.board.ae674 : lcdkOMAPL138_pinmux.oe674 (.text:Board_pinmuxConfig)
                  c3043740    00000440     edma3_lld_rm.ae674 : edma3resmgr.oe674 (.text:EDMA3_RM_freeResource)
                  c3043b80    00000440     ti.drv.i2c.ae674 : I2C_v0.oe674 (.text:I2C_open_v0$0)
                  c3043fc0    00000440     ti.drv.uart.ae674 : UART_v0.oe674 (.text:UART_open_v0$0)
                  c3044400    00000420     ti.drv.mcasp.ae674 : mcasp_edma.oe674 (.text:Mcasp_localUpdtDtPktToLnkPrms)
                  c3044820    00000420     ti.drv.uart.ae674 : UART_v0.oe674 (.text:UART_write2_v0$0)
                  c3044c40    00000400     edma3_lld_rm.ae674 : edma3resmgr.oe674 (.text:EDMA3_RM_create)
                  c3045040    00000400     ti.drv.uart.ae674 : UART_v0.oe674 (.text:UART_read2_v0$0)
                  c3045440    000003e0     rts6740_elf.lib : fputs.obj (.text:fputs)
                  c3045820    000003a0     ti.drv.mcasp.ae674 : mcasp_drv.oe674 (.text:Mcasp_localConfigXmtSection)
                  c3045bc0    000003a0                        : mcasp_drv.oe674 (.text:mcaspDeleteChan)
                  c3045f60    000003a0     sysbios.ae674 : BIOS.obj (.text:ti_sysbios_knl_Task_Module_startup__E)
                  c3046300    00000380     ti.drv.mcasp.ae674 : mcasp_drv.oe674 (.text:mcaspRegisterInt)
                  c3046680    00000360                        : mcasp_drv.oe674 (.text:Mcasp_localSetupHwInfo)
                  c30469e0    00000340                        : mcasp_drv.oe674 (.text:Mcasp_localConfigRcvSection)
                  c3046d20    00000340     edma3_lld_rm.ae674 : edma3resmgr.oe674 (.text:edma3ComplHandler)
                  c3047060    00000320     edma3_lld_drv.ae674 : edma3_drv_basic.oe674 (.text:EDMA3_DRV_freeChannel)
                  c3047380    00000320     codec_if.obj (.text)
                  c30476a0    00000320     sysbios.ae674 : BIOS.obj (.text:ti_sysbios_timers_timer64_Timer_deviceConfig__I)
                  c30479c0    00000300     edma3_lld_drv.ae674 : edma3_drv_init.oe674 (.text:edma3OpenResMgr)
                  c3047cc0    00000300     mcasp_soc.obj (.text)
                  c3047fc0    000002e0     ti.board.ae674 : lcdkOMAPL138_pll.oe674 (.text:Board_CorePLLConfig)
                  c30482a0    000002c0     edma3_lld_drv.ae674 : edma3_drv_basic.oe674 (.text:EDMA3_DRV_disableTransfer)
                  c3048560    000002c0                         : edma3_drv_init.oe674 (.text:EDMA3_DRV_open)
                  c3048820    000002c0                         : edma3_drv_basic.oe674 (.text:edma3RemoveMapping)
                  c3048ae0    000002c0     ti.drv.mcasp.ae674 : mcasp_drv.oe674 (.text:mcaspSubmitReq)
                  c3048da0    000002c0     sysbios.ae674 : BIOS.obj (.text:ti_sysbios_heaps_HeapMem_Instance_init__E)
                  c3049060    000002c0     ti.targets.rts6000.ae674 : LoggerBuf.oe674 (.text:xdc_runtime_LoggerBuf_write8__E)
                  c3049320    000002a0     ti.board.ae674 : lcdkOMAPL138_pll.oe674 (.text:Board_DDRPLLConfig)
                  c30495c0    000002a0     ti.drv.mcasp.ae674 : mcasp_drv.oe674 (.text:Mcasp_localLoadPktToEdma)
                  c3049860    000002a0     sysbios.ae674 : BIOS.obj (.text:ti_sysbios_knl_Clock_workFunc__E)
                  c3049b00    00000280     edma3_lld_drv.ae674 : edma3_drv_init.oe674 (.text:EDMA3_DRV_create)
                  c3049d80    00000280                         : edma3_drv_basic.oe674 (.text:EDMA3_DRV_enableTransfer)
                  c304a000    00000280     sysbios.ae674 : BIOS.obj (.text:ti_sysbios_family_c64p_Cache_Module_startup__E)
                  c304a280    00000280                   : BIOS.obj (.text:ti_sysbios_knl_Semaphore_post__E)
                  c304a500    00000260     rts6740_elf.lib : imath64.obj (.text:__c6xabi_divull)
                  c304a760    00000260     sysbios.ae674 : BIOS.obj (.text:ti_sysbios_family_c64p_Cache_block__I)
                  c304a9c0    00000260                   : BIOS.obj (.text:ti_sysbios_family_c64p_Hwi_dispatchCore__I)
                  c304ac20    00000260     ti.targets.rts6000.ae674 : Startup.oe674 (.text:xdc_runtime_Startup_startMods__I)
                  c304ae80    00000240     ti.board.ae674 : lcdkOMAPL138_clock.oe674 (.text:Board_moduleClockEnable)
                  c304b0c0    00000240     sysbios.ae674 : BIOS.obj (.text:ti_sysbios_family_c64p_EventCombiner_dispatch__E)
                  c304b300    00000240                   : BIOS.obj (.text:ti_sysbios_family_c64p_Exception_internalHandler__I)
                  c304b540    00000240                   : BIOS.obj (.text:ti_sysbios_timers_timer64_Timer_setPeriodMicroSecs__E)
                  c304b780    00000240     ti.targets.rts6000.ae674 : Core-mem.oe674 (.text:xdc_runtime_Core_createObject__I)
                  c304b9c0    00000240     app_mcasp_pe674.oe674 (.text:xdc_runtime_System_printfExtend__I)
                  c304bc00    00000220     ti.drv.i2c.ae674 : I2C_v0.oe674 (.text:I2C_transfer_v0$0)
                  c304be20    00000220     rts6740_elf.lib : setvbuf.obj (.text:setvbuf)
                  c304c040    00000220     sysbios.ae674 : BIOS.obj (.text:ti_sysbios_family_c64p_Hwi_reconfig__E)
                  c304c260    00000220                   : BIOS.obj (.text:ti_sysbios_knl_Swi_run__I)
                  c304c480    00000200     edma3_lld_drv.ae674 : edma3_drv_adv.oe674 (.text:EDMA3_DRV_getPaRAMField)
                  c304c680    00000200     ti.osal.ae674 : SemaphoreP_tirtos.oe674 (.text:SemaphoreP_create)
                  c304c880    00000200     ti.drv.uart.ae674 : UART_v0.oe674 (.text:UART_readPolling_v0$0)
                  c304ca80    00000200     sysbios.ae674 : c64p_Hwi_disp_always.obj (.text:_ti_sysbios_family_c64p_Hwi_dispatchAlways)
                  c304cc80    00000200     ti.drv.mcasp.ae674 : mcasp_drv.oe674 (.text:mcaspBitSetGblRCtl)
                  c304ce80    00000200                        : mcasp_drv.oe674 (.text:mcaspBitSetGblXCtl)
                  c304d080    00000200     sysbios.ae674 : BIOS.obj (.text:ti_sysbios_family_c64p_EventCombiner_dispatchPlug__E)
                  c304d280    00000200     ti.targets.rts6000.ae674 : Error.oe674 (.text:xdc_runtime_Error_policyDefault__E)
                  c304d480    000001e0     ti.board.ae674 : lcdkOMAPL138_clock.oe674 (.text:Board_moduleClockSyncReset)
                  c304d660    000001e0     ti.osal.ae674 : HwiP_tirtos.oe674 (.text:HwiP_create)
                  c304d840    000001e0     sysbios.ae674 : BIOS.obj (.text:ti_sysbios_gates_GateMutex_enter__E)
                  c304da20    000001e0                   : BIOS.obj (.text:ti_sysbios_knl_Task_exit__E)
                  c304dc00    000001e0     ti.targets.rts6000.ae674 : LoggerBuf.oe674 (.text:xdc_runtime_LoggerBuf_write4__E)
                  c304dde0    000001e0                              : Text.oe674 (.text:xdc_runtime_Text_putSite__E)
                  c304dfc0    000001c0     edma3_lld_drv.ae674 : edma3_drv_adv.oe674 (.text:EDMA3_DRV_linkChannel)
                  c304e180    000001c0     ti.drv.mcasp.ae674 : mcasp_drv.oe674 (.text:Mcasp_localCancelAndAbortAllIo)
                  c304e340    000001c0     edma3_lld_rm.ae674 : edma3resmgr.oe674 (.text:edma3ShadowRegionInit)
                  c304e500    000001c0     sysbios.ae674 : BIOS.obj (.text:ti_sysbios_io_DEV_postInit__I)
                  c304e6c0    000001c0                   : BIOS.obj (.text:ti_sysbios_timers_timer64_Timer_getFreq__E)
                  c304e880    000001a0     rts6740_elf.lib : hostrename.obj (.text:HOSTrename)
                  c304ea20    000001a0     ti.drv.mcasp.ae674 : mcasp_drv.oe674 (.text:Mcasp_localCollectRcvErrorStats)
                  c304ebc0    000001a0                        : mcasp_drv.oe674 (.text:Mcasp_localCollectXmtErrorStats)
                  c304ed60    000001a0                        : mcasp_edma.oe674 (.text:Mcasp_localSetupEdmaDuringOpen)
                  c304ef00    000001a0     edma3_lld_drv_sample.ae674 : sample_init.oe674 (.text:edma3init)
                  c304f0a0    000001a0     ti.drv.mcasp.ae674 : mcasp_drv.oe674 (.text:mcaspSubmitChan)
                  c304f240    000001a0     sysbios.ae674 : BIOS.obj (.text:ti_sysbios_family_c64p_Cache_getL2InitSize__I)
                  c304f3e0    000001a0                   : BIOS.obj (.text:ti_sysbios_timers_timer64_Timer_start__E)
                  c304f580    000001a0     ti.targets.rts6000.ae674 : Core-smem.oe674 (.text:xdc_runtime_Core_constructObject__I)
                  c304f720    00000180     ti.board.ae674 : lcdkOMAPL138_ddr.oe674 (.text:Board_DDR3Init)
                  c304f8a0    00000180     edma3_lld_drv.ae674 : edma3_drv_adv.oe674 (.text:EDMA3_DRV_getPaRAM)
                  c304fa20    00000180     edma3_lld_rm.ae674 : edma3resmgr.oe674 (.text:EDMA3_RM_registerTccCb)
                  c304fba0    00000180                        : edma3resmgr.oe674 (.text:EDMA3_RM_unregisterTccCb)
                  c304fd20    00000180     ti.drv.mcasp.ae674 : mcasp_drv.oe674 (.text:Mcasp_localEdmaProcessPkt)
                  c304fea0    00000180     edma3_lld_rm.ae674 : edma3resmgr.oe674 (.text:edma3GlobalRegionInit)
                  c3050020    00000180     ti.drv.mcasp.ae674 : mcasp_drv.oe674 (.text:mcaspUnRegisterInt)
                  c30501a0    00000180     sysbios.ae674 : c64p_Exception_asm.obj (.text)
                  c3050320    00000180                   : BIOS.obj (.text:ti_sysbios_knl_Task_schedule__I)
                  c30504a0    00000180                   : BIOS.obj (.text:ti_sysbios_knl_Task_startCore__E)
                  c3050620    00000160     ti.board.ae674 : lcdkOMAPL138.oe674 (.text:Board_init)
                  c3050780    00000160     ti.osal.ae674 : RegisterIntr_tirtos.oe674 (.text:Osal_RegisterInterrupt)
                  c30508e0    00000160     ti.drv.mcasp.ae674 : mcasp_drv.oe674 (.text:mcaspBitRemoveGblXCtl)
                  c3050a40    00000160     edma3_lld_drv_sample.ae674 : sample_omapl138_int_reg.oe674 (.text:registerEdma3Interrupts)
                  c3050ba0    00000160     sysbios.ae674 : BIOS.obj (.text:ti_sysbios_knl_Swi_post__E)
                  c3050d00    00000160     ti.targets.rts6000.ae674 : Text.oe674 (.text:xdc_runtime_Text_putMod__E)
                  c3050e60    00000140     edma3_lld_drv.ae674 : edma3_drv_adv.oe674 (.text:EDMA3_DRV_setPaRAM)
                  c3050fa0    00000140     ti.drv.mcasp.ae674 : mcasp_drv.oe674 (.text:Mcasp_localIsrSwiFxn)
                  c30510e0    00000140     rts6740_elf.lib : fclose.obj (.text:__TI_closefile)
                  c3051220    00000140                     : fflush.obj (.text:fflush)
                  c3051360    00000140                     : getdevice.obj (.text:getdevice)
                  c30514a0    00000140     ti.drv.mcasp.ae674 : mcasp_drv.oe674 (.text:mcaspBitRemoveGblRCtl)
                  c30515e0    00000140                        : mcasp_drv.oe674 (.text:mcaspWriteChanStatRam)
                  c3051720    00000140                        : mcasp_drv.oe674 (.text:mcaspWriteUserDataRam)
                  c3051860    00000140     sysbios.ae674 : BIOS.obj (.text:ti_sysbios_family_c64p_Cache_getL1DInitSize__I)
                  c30519a0    00000140                   : BIOS.obj (.text:ti_sysbios_family_c64p_Cache_getL1PInitSize__I)
                  c3051ae0    00000140                   : BIOS.obj (.text:ti_sysbios_family_c64p_Hwi_Module_startup__E)
                  c3051c20    00000140                   : BIOS.obj (.text:ti_sysbios_knl_Semaphore_Instance_init__E)
                  c3051d60    00000140                   : BIOS.obj (.text:ti_sysbios_knl_Task_blockI__E)
                  c3051ea0    00000140     ti.targets.rts6000.ae674 : Core-mem.oe674 (.text:xdc_runtime_Core_deleteObject__I)
                  c3051fe0    00000140                              : LoggerBuf.oe674 (.text:xdc_runtime_LoggerBuf_setFilterLevel__E)
                  c3052120    00000140                              : Text.oe674 (.text:xdc_runtime_Text_putLab__E)
                  c3052260    00000120     ti.board.ae674 : lcdkOMAPL138_pinmux.oe674 (.text:Board_configEmifPinMux)
                  c3052380    00000120     ti.csl.ae674 : csl_chip.oe674 (.text:CSL_chipReadReg)
                  c30524a0    00000120     boot.ae674 : autoinit.oe674 (.text:_auto_init_elf)
                  c30525c0    00000120     edma3_lld_rm.ae674 : edma3resmgr.oe674 (.text:edma3MemCpy)
                  c30526e0    00000120     rts6740_elf.lib : fseek.obj (.text:fseek)
                  c3052800    00000120     main_mcasp.obj (.text)
                  c3052920    00000120     sysbios.ae674 : BIOS.obj (.text:ti_sysbios_family_c64p_Hwi_Instance_init__E)
                  c3052a40    00000120                   : BIOS.obj (.text:ti_sysbios_knl_Task_unblockI__E)
                  c3052b60    00000120     ti.targets.rts6000.ae674 : LoggerBuf.oe674 (.text:xdc_runtime_LoggerBuf_getFilterLevel__E)
                  c3052c80    00000100     ti.board.ae674 : lcdkOMAPL138_clock.oe674 (.text:Board_moduleClockInit)
                  c3052d80    00000100     edma3_lld_drv.ae674 : edma3_drv_basic.oe674 (.text:EDMA3_DRV_clearErrorBits)
                  c3052e80    00000100     ti.osal.ae674 : EventCombinerP_tirtos.oe674 (.text:EventCombinerP_GroupRegisterInt)
                  c3052f80    00000100     ti.drv.i2c.ae674 : I2C_v0.oe674 (.text:I2C_close_v0$0)
                  c3053080    00000100     ti.drv.uart.ae674 : UART_v0.oe674 (.text:UART_writePolling_v0$0)
                  c3053180    00000100     rts6740_elf.lib : copy_decompress_rle.obj (.text:__TI_decompress_rle_core)
                  c3053280    00000100                     : _io_perm.obj (.text:__TI_wrt_ok)
                  c3053380    00000100     ti.drv.mcasp.ae674 : mcasp_drv.oe674 (.text:mcaspValidateBufferConfig)
                  c3053480    00000100     sysbios.ae674 : BIOS.obj (.text:ti_sysbios_family_c64p_Hwi_Instance_finalize__E)
                  c3053580    00000100                   : BIOS.obj (.text:ti_sysbios_knl_Swi_restoreHwi__E)
                  c3053680    00000100                   : BIOS.obj (.text:ti_sysbios_knl_Swi_schedule__I)
                  c3053780    00000100                   : BIOS.obj (.text:ti_sysbios_timers_timer64_Timer_initDevice__I)
                  c3053880    00000100     ti.targets.rts6000.ae674 : Error.oe674 (.text:xdc_runtime_Error_print__E)
                  c3053980    00000100                              : Memory.oe674 (.text:xdc_runtime_Memory_alloc__E)
                  c3053a80    00000100                              : Startup.oe674 (.text:xdc_runtime_Startup_exec__E)
                  c3053b80    000000e0     edma3_lld_drv.ae674 : edma3_drv_adv.oe674 (.text:EDMA3_DRV_getPaRAMPhyAddr)
                  c3053c60    000000e0     rts6740_elf.lib : hostlseek.obj (.text:HOSTlseek)
                  c3053d40    000000e0                     : hostopen.obj (.text:HOSTopen)
                  c3053e20    000000e0                     : hostwrite.obj (.text:HOSTwrite)
                  c3053f00    000000e0     I2C_soc.obj (.text)
                  c3053fe0    000000e0     ti.drv.mcasp.ae674 : mcasp_ioctl.oe674 (.text:Mcasp_localAbortRequests)
                  c30540c0    000000e0                        : mcasp_drv.oe674 (.text:Mcasp_localCompleteCurrentIo)
                  c30541a0    000000e0     ti.drv.uart.ae674 : UART_v0.oe674 (.text:UART_close_v0$0)
                  c3054280    000000e0                       : UART_v0.oe674 (.text:UART_read_v0$0)
                  c3054360    000000e0                       : UART_v0.oe674 (.text:UART_write_v0$0)
                  c3054440    000000e0     rts6740_elf.lib : divi.obj (.text:__divi)
                  c3054520    000000e0                     : close.obj (.text:close)
                  c3054600    000000e0                     : exit.obj (.text:exit)
                  c30546e0    000000e0                     : memset.obj (.text:memset)
                  c30547c0    000000e0     sysbios.ae674 : BIOS.obj (.text:ti_sysbios_heaps_HeapMem_alloc__E)
                  c30548a0    000000e0                   : BIOS.obj (.text:ti_sysbios_knl_Swi_runLoop__I)
                  c3054980    000000e0                   : BIOS.obj (.text:ti_sysbios_knl_Swi_startup__E)
                  c3054a60    000000e0                   : BIOS.obj (.text:ti_sysbios_timers_timer64_Timer_startup__E)
                  c3054b40    000000e0     ti.targets.rts6000.ae674 : Text.oe674 (.text:xdc_runtime_Text_visitRope2__I)
                  c3054c20    000000c0     rts6740_elf.lib : hostread.obj (.text:HOSTread)
                  c3054ce0    000000c0                     : hostunlink.obj (.text:HOSTunlink)
                  c3054da0    000000c0     ti.osal.ae674 : Utils_tirtos.oe674 (.text:Osal_delay)
                  c3054e60    000000c0     ti.drv.uart.ae674 : UART_v0.oe674 (.text:UART_charPut$0)
                  c3054f20    000000c0                       : UART_v0.oe674 (.text:UART_readCancelNoCB$0)
                  c3054fe0    000000c0     rts6740_elf.lib : fflush.obj (.text:__TI_doflush)
                  c30550a0    000000c0                     : divu.obj (.text:__divu)
                  c3055160    000000c0     edma3_lld_rm.ae674 : edma3resmgr.oe674 (.text:edma3MemZero)
                  c3055220    000000c0     edma3_lld_drv_sample.ae674 : sample_cs.oe674 (.text:edma3OsProtectEntry)
                  c30552e0    000000c0     sysbios.ae674 : BIOS.obj (.text:ti_sysbios_heaps_HeapMem_getStats__E)
                  c30553a0    000000c0                   : BIOS.obj (.text:ti_sysbios_knl_Clock_logTick__E)
                  c3055460    000000c0     rts6740_elf.lib : tls.obj (.text:tls:init:__TI_tls_init)
                  c3055520    000000c0     ti.targets.rts6000.ae674 : Assert.oe674 (.text:xdc_runtime_Assert_raise__I)
                  c30555e0    000000c0                              : Error.oe674 (.text:xdc_runtime_Error_setX__E)
                  c30556a0    000000c0     app_mcasp_pe674.oe674 (.text:xdc_runtime_LoggerBuf_Object__create__S)
                  c3055760    000000c0     ti.targets.rts6000.ae674 : SysMin.oe674 (.text:xdc_runtime_SysMin_abort__E)
                  c3055820    000000c0                              : SysMin.oe674 (.text:xdc_runtime_SysMin_flush__E)
                  c30558e0    000000a0     rts6740_elf.lib : hostclose.obj (.text:HOSTclose)
                  c3055980    000000a0     ti.drv.i2c.ae674 : I2C_drv.oe674 (.text:I2C_init)
                  c3055a20    000000a0     ti.osal.ae674 : RegisterIntr_tirtos.oe674 (.text:Osal_DeleteInterrupt)
                  c3055ac0    000000a0     ti.drv.uart.ae674 : UART_drv.oe674 (.text:UART_init)
                  c3055b60    000000a0                       : UART_stdio.oe674 (.text:UART_stdioInit)
                  c3055c00    000000a0                       : UART_v0.oe674 (.text:UART_v0_callback$0)
                  c3055ca0    000000a0                       : UART_v0.oe674 (.text:UART_writeCancelNoCB$0)
                  c3055d40    000000a0     rts6740_elf.lib : fopen.obj (.text:__TI_cleanup)
                  c3055de0    000000a0                     : remu.obj (.text:__remu)
                  c3055e80    000000a0     boot.ae674 : boot.oe674 (.text:_c_int00)
                  c3055f20    000000a0     sysbios.ae674 : c64p_Hwi_asm.obj (.text:_ti_sysbios_family_c64p_Hwi_plug__E)
                  c3055fc0    000000a0     rts6740_elf.lib : memcpy64.obj (.text:memcpy)
                  c3056060    000000a0     sysbios.ae674 : BIOS.obj (.text:ti_sysbios_family_c64p_Exception_Module_startup__E)
                  c3056100    000000a0     app_mcasp_pe674.oe674 (.text:ti_sysbios_family_c64p_Hwi_construct)
                  c30561a0    000000a0     sysbios.ae674 : BIOS.obj (.text:ti_sysbios_family_c64p_Hwi_dispatchC__I)
                  c3056240    000000a0                   : BIOS.obj (.text:ti_sysbios_family_c64p_Hwi_eventMap__E)
                  c30562e0    000000a0                   : BIOS.obj (.text:ti_sysbios_family_c64p_Hwi_getStackInfo__E)
                  c3056380    000000a0                   : BIOS.obj (.text:ti_sysbios_heaps_HeapMem_init__I)
                  c3056420    000000a0                   : BIOS.obj (.text:ti_sysbios_knl_Task_allBlockedFunction__I)
                  c30564c0    000000a0                   : BIOS.obj (.text:ti_sysbios_timers_timer64_Timer_stop__E)
                  c3056560    000000a0     ti.targets.rts6000.ae674 : Core-params.oe674 (.text:xdc_runtime_Core_assignParams__I)
                  c3056600    000000a0                              : SysMin.oe674 (.text:xdc_runtime_SysMin_putch__E)
                  c30566a0    000000a0                              : System.oe674 (.text:xdc_runtime_System_formatNum__I)
                  c3056740    000000a0                              : System.oe674 (.text:xdc_runtime_System_putchar__I)
                  c30567e0    000000a0                              : Text.oe674 (.text:xdc_runtime_Text_printVisFxn__I)
                  c3056880    000000a0                              : Text.oe674 (.text:xdc_runtime_Text_xprintf__I)
                  c3056920    00000080     ti.board.ae674 : lcdkOMAPL138_clock.oe674 (.text:CSL_PSC_setModuleNextState$0)
                  c30569a0    00000080     ti.osal.ae674 : EventCombinerP_tirtos.oe674 (.text:EventCombinerP_getHwi)
                  c3056a20    00000080                   : EventCombinerP_tirtos.oe674 (.text:EventCombinerP_getIntNum)
                  c3056aa0    00000080     ti.csl.ae674 : mcasp.oe674 (.text:McASPRxClkCfg)
                  c3056b20    00000080                  : mcasp.oe674 (.text:McASPTxClkCfg)
                  c3056ba0    00000080                  : uart.oe674 (.text:UART_charPut_v0)
                  c3056c20    00000080     rts6740_elf.lib : trgmsg.obj (.text:__TI_readmsg)
                  c3056ca0    00000080                     : llshift.obj (.text:__c6xabi_llshl)
                  c3056d20    00000080     sysbios.ae674 : c62_TaskSupport_asm.obj (.text:_ti_sysbios_family_c62_TaskSupport_swap__E)
                  c3056da0    00000080     edma3_lld_drv_sample.ae674 : sample_cs.oe674 (.text:edma3OsProtectExit)
                  c3056e20    00000080     edma3_lld_rm.ae674 : edma3resmgr.oe674 (.text:edma3ParamCpy)
                  c3056ea0    00000080     rts6740_elf.lib : getdevice.obj (.text:finddevice)
                  c3056f20    00000080     app_mcasp_pe674.oe674 (.text:ti_sysbios_BIOS_atExitFunc__I)
                  c3056fa0    00000080     app_mcasp_pe674.oe674 (.text:ti_sysbios_BIOS_registerRTSLock__I)
                  c3057020    00000080     sysbios.ae674 : BIOS.obj (.text:ti_sysbios_family_c64p_Cache_invL1pAll__E)
                  c30570a0    00000080     app_mcasp_pe674.oe674 (.text:ti_sysbios_gates_GateHwi_Object__create__S)
                  c3057120    00000080     app_mcasp_pe674.oe674 (.text:ti_sysbios_gates_GateMutex_Object__create__S)
                  c30571a0    00000080     sysbios.ae674 : BIOS.obj (.text:ti_sysbios_hal_Hwi_checkStack)
                  c3057220    00000080                   : BIOS.obj (.text:ti_sysbios_hal_Hwi_initStack)
                  c30572a0    00000080     app_mcasp_pe674.oe674 (.text:ti_sysbios_heaps_HeapMem_Object__create__S)
                  c3057320    00000080     app_mcasp_pe674.oe674 (.text:ti_sysbios_knl_Clock_doTick__I)
                  c30573a0    00000080     sysbios.ae674 : BIOS.obj (.text:ti_sysbios_knl_Idle_run__E)
                  c3057420    00000080     app_mcasp_pe674.oe674 (.text:ti_sysbios_knl_Semaphore_create)
                  c30574a0    00000080     sysbios.ae674 : BIOS.obj (.text:ti_sysbios_knl_Semaphore_pendTimeout__I)
                  c3057520    00000080                   : BIOS.obj (.text:ti_sysbios_knl_Task_enable__E)
                  c30575a0    00000080     rts6740_elf.lib : unlink.obj (.text:unlink)
                  c3057620    00000080     ti.targets.rts6000.ae674 : Core-label.oe674 (.text:xdc_runtime_Core_assignLabel__I)
                  c30576a0    00000080                              : LoggerBuf.oe674 (.text:xdc_runtime_LoggerBuf_Instance_init__E)
                  c3057720    00000080                              : LoggerBuf.oe674 (.text:xdc_runtime_LoggerBuf_Module_startup__E)
                  c30577a0    00000080                              : LoggerBuf.oe674 (.text:xdc_runtime_LoggerBuf_filterOutEvent__I)
                  c3057820    00000080     app_mcasp_pe674.oe674 (.text:xdc_runtime_SysMin_output__I)
                  c30578a0    00000080     ti.targets.rts6000.ae674 : System.oe674 (.text:xdc_runtime_System_atexit__E)
                  c3057920    00000080                              : System.oe674 (.text:xdc_runtime_System_avprintf__E)
                  c30579a0    00000080                              : System.oe674 (.text:xdc_runtime_System_processAtExit__E)
                  c3057a20    00000080                              : System.oe674 (.text:xdc_runtime_System_vprintf__E)
                  c3057aa0    00000060     ti.osal.ae674 : HwiP_tirtos.oe674 (.text:HwiP_delete)
                  c3057b00    00000060     ti.drv.i2c.ae674 : I2C_drv.oe674 (.text:I2C_Params_init)
                  c3057b60    00000060                      : I2C_drv.oe674 (.text:I2C_open)
                  c3057bc0    00000060                      : I2C_drv.oe674 (.text:I2C_transfer)
                  c3057c20    00000060                      : I2C_v0.oe674 (.text:I2C_transfer_Callback_v0$0)
                  c3057c80    00000060     ti.drv.mcasp.ae674 : mcasp_drv.oe674 (.text:Mcasp_localGetNextIndex)
                  c3057ce0    00000060                        : mcasp_drv.oe674 (.text:Mcasp_localResetRcv)
                  c3057d40    00000060                        : mcasp_drv.oe674 (.text:Mcasp_localResetXmt)
                  c3057da0    00000060                        : mcasp_drv.oe674 (.text:Mcasp_socGetInitCfg)
                  c3057e00    00000060                        : mcasp_drv.oe674 (.text:Mcasp_socSetInitCfg)
                  c3057e60    00000060     ti.osal.ae674 : RegisterIntr_tirtos.oe674 (.text:Osal_ClearInterrupt)
                  c3057ec0    00000060                   : Utils_tirtos.oe674 (.text:Osal_getHwAttrs)
                  c3057f20    00000060                   : Utils_tirtos.oe674 (.text:Osal_getThreadType)
                  c3057f80    00000060                   : SemaphoreP_tirtos.oe674 (.text:SemaphoreP_delete)
                  c3057fe0    00000060                   : SemaphoreP_tirtos.oe674 (.text:SemaphoreP_pend)
                  c3058040    00000060     ti.csl.ae674 : uart.oe674 (.text:UART_divisorLatchWrite_v0)
                  c30580a0    00000060                  : uart.oe674 (.text:UART_fifoWait_v0)
                  c3058100    00000060                  : uart.oe674 (.text:UART_lineCharacConfig_v0)
                  c3058160    00000060     ti.drv.uart.ae674 : UART_v0.oe674 (.text:UART_readCancel_v0$0)
                  c30581c0    00000060                       : UART_v0.oe674 (.text:UART_writeCancel_v0$0)
                  c3058220    00000060     rts6740_elf.lib : trgmsg.obj (.text:__TI_writemsg)
                  c3058280    00000060                     : llshift.obj (.text:__c6xabi_llshru)
                  c30582e0    00000060                     : imath64.obj (.text:_subcull)
                  c3058340    00000060     sysbios.ae674 : c64p_Hwi_asm_switch.obj (.text:_ti_sysbios_family_c64p_Hwi_switchAndDispatch__I)
                  c30583a0    00000060                   : c64p_Hwi_asm_switch.obj (.text:_ti_sysbios_family_xxx_Hwi_switchAndRunFunc)
                  c3058400    00000060     audio_evminit.obj (.text)
                  c3058460    00000060     edma3_lld_drv_sample.ae674 : sample_cs.oe674 (.text:edma3OsSemCreate)
                  c30584c0    00000060                                : sample_cs.oe674 (.text:edma3OsSemTake)
                  c3058520    00000060     rts6740_elf.lib : lseek.obj (.text:lseek)
                  c3058580    00000060     app_mcasp_pe674.oe674 (.text:ti_sysbios_BIOS_errorRaiseHook__I)
                  c30585e0    00000060     app_mcasp_pe674.oe674 (.text:ti_sysbios_BIOS_removeRTSLock__I)
                  c3058640    00000060     app_mcasp_pe674.oe674 (.text:ti_sysbios_BIOS_startFunc__I)
                  c30586a0    00000060     sysbios.ae674 : BIOS.obj (.text:ti_sysbios_family_c64p_Cache_setMar__E)
                  c3058700    00000060                   : BIOS.obj (.text:ti_sysbios_family_c64p_EventCombiner_unused__E)
                  c3058760    00000060     app_mcasp_pe674.oe674 (.text:ti_sysbios_gates_GateMutex_Object__delete__S)
                  c30587c0    00000060     sysbios.ae674 : BIOS.obj (.text:ti_sysbios_heaps_HeapMem_free__E)
                  c3058820    00000060                   : BIOS.obj (.text:ti_sysbios_io_DEV_Module_startup__E)
                  c3058880    00000060                   : BIOS.obj (.text:ti_sysbios_knl_Clock_Module_startup__E)
                  c30588e0    00000060     app_mcasp_pe674.oe674 (.text:ti_sysbios_knl_Queue_construct)
                  c3058940    00000060     app_mcasp_pe674.oe674 (.text:ti_sysbios_knl_Semaphore_construct)
                  c30589a0    00000060     sysbios.ae674 : BIOS.obj (.text:ti_sysbios_knl_Swi_Module_startup__E)
                  c3058a00    00000060                   : BIOS.obj (.text:ti_sysbios_knl_Task_enter__I)
                  c3058a60    00000060     app_mcasp_pe674.oe674 (.text:ti_sysbios_rts_gnu_MemAlloc_alloc)
                  c3058ac0    00000060     rts6740_elf.lib : write.obj (.text:write)
                  c3058b20    00000060     app_mcasp_pe674.oe674 (.text:xdc_runtime_LoggerBuf_Object__delete__S)
                  c3058b80    00000060     ti.targets.rts6000.ae674 : LoggerBuf.oe674 (.text:xdc_runtime_LoggerBuf_reset__E)
                  c3058be0    00000060                              : Memory.oe674 (.text:xdc_runtime_Memory_valloc__E)
                  c3058c40    00000060                              : Text.oe674 (.text:xdc_runtime_Text_cordText__E)
                  c3058ca0    00000040     ti.csl.ae674 : i2c.oe674 (.text:I2CMasterInitExpClk)
                  c3058ce0    00000040     ti.drv.i2c.ae674 : I2C_v0.oe674 (.text:I2C_init_v0$0)
                  c3058d20    00000040                      : I2C_drv.oe674 (.text:I2C_transactionInit)
                  c3058d60    00000040                      : I2C_v0.oe674 (.text:I2C_v0_control$0)
                  c3058da0    00000040     ti.csl.ae674 : mcasp.oe674 (.text:McASPReadFifoEnable)
                  c3058de0    00000040                  : mcasp.oe674 (.text:McASPRxHFClkPolaritySet)
                  c3058e20    00000040                  : mcasp.oe674 (.text:McASPSerializerRxSet)
                  c3058e60    00000040                  : mcasp.oe674 (.text:McASPSerializerTxSet)
                  c3058ea0    00000040                  : mcasp.oe674 (.text:McASPTxHFClkPolaritySet)
                  c3058ee0    00000040                  : mcasp.oe674 (.text:McASPWriteFifoEnable)
                  c3058f20    00000040     ti.osal.ae674 : MuxIntcP_tirtos.oe674 (.text:MuxIntcP_create)
                  c3058f60    00000040                   : RegisterIntr_tirtos.oe674 (.text:Osal_DisableInterrupt)
                  c3058fa0    00000040                   : RegisterIntr_tirtos.oe674 (.text:Osal_EnableInterrupt)
                  c3058fe0    00000040                   : RegisterIntr_tirtos.oe674 (.text:Osal_RegisterInterrupt_initParams)
                  c3059020    00000040                   : SemaphoreP_tirtos.oe674 (.text:SemaphoreP_Params_init)
                  c3059060    00000040                   : SemaphoreP_tirtos.oe674 (.text:SemaphoreP_post)
                  c30590a0    00000040     ti.csl.ae674 : uart.oe674 (.text:UART_breakCtl_v0)
                  c30590e0    00000040                  : uart.oe674 (.text:UART_charGetNonBlocking_v0)
                  c3059120    00000040                  : uart.oe674 (.text:UART_divisorValCompute_v0)
                  c3059160    00000040                  : uart.oe674 (.text:UART_fIFOConfig_v0)
                  c30591a0    00000040                  : uart.oe674 (.text:UART_fIFORegisterWrite_v0)
                  c30591e0    00000040                  : uart.oe674 (.text:UART_intDisable_v0)
                  c3059220    00000040                  : uart.oe674 (.text:UART_intEnable_v0)
                  c3059260    00000040                  : uart.oe674 (.text:UART_intIdentityGet_v0)
                  c30592a0    00000040                  : uart.oe674 (.text:UART_loopbackModeControl_v0)
                  c30592e0    00000040     ti.drv.uart.ae674 : UART_drv.oe674 (.text:UART_open)
                  c3059320    00000040     ti.csl.ae674 : uart.oe674 (.text:UART_readLineStatus_v0)
                  c3059360    00000040     ti.osal.ae674 : Utils_tirtos.oe674 (.text:_DebugP_assert)
                  c30593a0    00000040     rts6740_elf.lib : assert.obj (.text:__c6xabi_abort_msg)
                  c30593e0    00000040                     : strasg.obj (.text:__strasgi_64plus)
                  c3059420    00000040                     : args_main.obj (.text:_args_main)
                  c3059460    00000040     sysbios.ae674 : c62_TaskSupport_asm.obj (.text:_ti_sysbios_family_c62_TaskSupport_buildTaskStack)
                  c30594a0    00000040     edma3_lld_drv_sample.ae674 : sample_cs.oe674 (.text:edma3OsSemGive)
                  c30594e0    00000040     app_mcasp_pe674.oe674 (.text:free)
                  c3059520    00000040     app_mcasp_pe674.oe674 (.text:ti_sysbios_BIOS_exitFunc__I)
                  c3059560    00000040     app_mcasp_pe674.oe674 (.text:ti_sysbios_BIOS_rtsLock__I)
                  c30595a0    00000040     app_mcasp_pe674.oe674 (.text:ti_sysbios_BIOS_rtsUnlock__I)
                  c30595e0    00000040     sysbios.ae674 : BIOS.obj (.text:ti_sysbios_family_c62_TaskSupport_start__E)
                  c3059620    00000040                   : BIOS.obj (.text:ti_sysbios_family_c64p_EventCombiner_Module_startup__E)
                  c3059660    00000040                   : BIOS.obj (.text:ti_sysbios_family_c64p_EventCombiner_disableEvent__E)
                  c30596a0    00000040                   : BIOS.obj (.text:ti_sysbios_family_c64p_EventCombiner_enableEvent__E)
                  c30596e0    00000040     app_mcasp_pe674.oe674 (.text:ti_sysbios_family_c64p_Hwi_destruct)
                  c3059720    00000040     sysbios.ae674 : BIOS.obj (.text:ti_sysbios_family_c64p_Hwi_disableInterrupt__E)
                  c3059760    00000040                   : BIOS.obj (.text:ti_sysbios_family_c64p_Hwi_enableInterrupt__E)
                  c30597a0    00000040                   : BIOS.obj (.text:ti_sysbios_family_c64p_Hwi_getEventId__E)
                  c30597e0    00000040                   : BIOS.obj (.text:ti_sysbios_family_c64p_primus_TimerSupport_enable__E)
                  c3059820    00000040     app_mcasp_pe674.oe674 (.text:ti_sysbios_gates_GateHwi_Handle__label__S)
                  c3059860    00000040     app_mcasp_pe674.oe674 (.text:ti_sysbios_gates_GateHwi_Object__delete__S)
                  c30598a0    00000040     app_mcasp_pe674.oe674 (.text:ti_sysbios_gates_GateMutex_Handle__label__S)
                  c30598e0    00000040     sysbios.ae674 : BIOS.obj (.text:ti_sysbios_gates_GateMutex_Instance_init__E)
                  c3059920    00000040                   : BIOS.obj (.text:ti_sysbios_gates_GateMutex_leave__E)
                  c3059960    00000040     app_mcasp_pe674.oe674 (.text:ti_sysbios_heaps_HeapMem_Handle__label__S)
                  c30599a0    00000040     app_mcasp_pe674.oe674 (.text:ti_sysbios_heaps_HeapMem_Object__delete__S)
                  c30599e0    00000040     app_mcasp_pe674.oe674 (.text:ti_sysbios_heaps_HeapMem_Object__get__S)
                  c3059a20    00000040     sysbios.ae674 : BIOS.obj (.text:ti_sysbios_knl_Queue_get__E)
                  c3059a60    00000040                   : BIOS.obj (.text:ti_sysbios_knl_Queue_put__E)
                  c3059aa0    00000040     app_mcasp_pe674.oe674 (.text:ti_sysbios_knl_Semaphore_destruct)
                  c3059ae0    00000040     app_mcasp_pe674.oe674 (.text:ti_sysbios_knl_Swi_Object__get__S)
                  c3059b20    00000040     app_mcasp_pe674.oe674 (.text:ti_sysbios_knl_Task_Object__get__S)
                  c3059b60    00000040     sysbios.ae674 : BIOS.obj (.text:ti_sysbios_knl_Task_sleepTimeout__I)
                  c3059ba0    00000040     ti.targets.rts6000.ae674 : Error.oe674 (.text:xdc_runtime_Error_check__E)
                  c3059be0    00000040                              : Error.oe674 (.text:xdc_runtime_Error_init__E)
                  c3059c20    00000040     app_mcasp_pe674.oe674 (.text:xdc_runtime_LoggerBuf_Handle__label__S)
                  c3059c60    00000040     ti.targets.rts6000.ae674 : LoggerBuf.oe674 (.text:xdc_runtime_LoggerBuf_Instance_finalize__E)
                  c3059ca0    00000040     app_mcasp_pe674.oe674 (.text:xdc_runtime_LoggerBuf_Object__get__S)
                  c3059ce0    00000040     ti.targets.rts6000.ae674 : LoggerBuf.oe674 (.text:xdc_runtime_LoggerBuf_write0__E)
                  c3059d20    00000040                              : LoggerBuf.oe674 (.text:xdc_runtime_LoggerBuf_write1__E)
                  c3059d60    00000040                              : LoggerBuf.oe674 (.text:xdc_runtime_LoggerBuf_write2__E)
                  c3059da0    00000040                              : Registry.oe674 (.text:xdc_runtime_Registry_findById__E)
                  c3059de0    00000040                              : SysMin.oe674 (.text:xdc_runtime_SysMin_Module_startup__E)
                  c3059e20    00000040                              : SysMin.oe674 (.text:xdc_runtime_SysMin_exit__E)
                  c3059e60    00000040                              : System.oe674 (.text:xdc_runtime_System_abort__E)
                  c3059ea0    00000040     app_mcasp_pe674.oe674 (.text:xdc_runtime_System_aprintf__E)
                  c3059ee0    00000040     ti.targets.rts6000.ae674 : System.oe674 (.text:xdc_runtime_System_exit__E)
                  c3059f20    00000040     app_mcasp_pe674.oe674 (.text:xdc_runtime_System_printf__E)
                  c3059f60    00000020     ti.board.ae674 : lcdkOMAPL138_pll.oe674 (.text:Board_PLLInit)
                  c3059f80    00000020                    : lcdkOMAPL138_lld_init.oe674 (.text:Board_uartStdioInit)
                  c3059fa0    00000020     ti.osal.ae674 : CacheP_tirtos.oe674 (.text:CacheP_wb)
                  c3059fc0    00000020                   : CacheP_tirtos.oe674 (.text:CacheP_wbInv)
                  c3059fe0    00000020                   : EventCombinerP_tirtos.oe674 (.text:EventCombinerP_disableEvent)
                  c305a000    00000020                   : EventCombinerP_tirtos.oe674 (.text:EventCombinerP_dispatchPlug)
                  c305a020    00000020                   : EventCombinerP_tirtos.oe674 (.text:EventCombinerP_enableEvent)
                  c305a040    00000020                   : HwiP_tirtos.oe674 (.text:HwiP_clearInterrupt)
                  c305a060    00000020                   : HwiP_tirtos.oe674 (.text:HwiP_disable)
                  c305a080    00000020                   : HwiP_tirtos.oe674 (.text:HwiP_disableInterrupt)
                  c305a0a0    00000020                   : HwiP_tirtos.oe674 (.text:HwiP_enableInterrupt)
                  c305a0c0    00000020                   : HwiP_tirtos.oe674 (.text:HwiP_restore)
                  c305a0e0    00000020     ti.csl.ae674 : i2c.oe674 (.text:I2CIntVectGet)
                  c305a100    00000020                  : i2c.oe674 (.text:I2CMasterBusBusy)
                  c305a120    00000020                  : i2c.oe674 (.text:I2CMasterControl)
                  c305a140    00000020                  : i2c.oe674 (.text:I2CMasterDataGet)
                  c305a160    00000020                  : i2c.oe674 (.text:I2CMasterDataPut)
                  c305a180    00000020                  : i2c.oe674 (.text:I2CMasterDisable)
                  c305a1a0    00000020                  : i2c.oe674 (.text:I2CMasterEnable)
                  c305a1c0    00000020                  : i2c.oe674 (.text:I2CMasterErr)
                  c305a1e0    00000020                  : i2c.oe674 (.text:I2CMasterIntClearEx)
                  c305a200    00000020                  : i2c.oe674 (.text:I2CMasterIntDisableEx)
                  c305a220    00000020                  : i2c.oe674 (.text:I2CMasterIntEnableEx)
                  c305a240    00000020                  : i2c.oe674 (.text:I2CMasterIntStatusEx)
                  c305a260    00000020                  : i2c.oe674 (.text:I2CMasterSlaveAddrSet)
                  c305a280    00000020                  : i2c.oe674 (.text:I2CMasterStart)
                  c305a2a0    00000020                  : i2c.oe674 (.text:I2CMasterStop)
                  c305a2c0    00000020                  : i2c.oe674 (.text:I2CModeControl)
                  c305a2e0    00000020                  : i2c.oe674 (.text:I2COwnAddressSet)
                  c305a300    00000020                  : i2c.oe674 (.text:I2CSetDataCount)
                  c305a320    00000020                  : i2c.oe674 (.text:I2CSlaveEnable)
                  c305a340    00000020                  : mcasp.oe674 (.text:McASPDITLeftChanStatusSet)
                  c305a360    00000020                  : mcasp.oe674 (.text:McASPDITLeftUserDataRamSet)
                  c305a380    00000020                  : mcasp.oe674 (.text:McASPDITModeCtlWrite)
                  c305a3a0    00000020                  : mcasp.oe674 (.text:McASPDITRightChanStatusSet)
                  c305a3c0    00000020                  : mcasp.oe674 (.text:McASPDITRightUserDataRamSet)
                  c305a3e0    00000020                  : mcasp.oe674 (.text:McASPDlbRegRead)
                  c305a400    00000020                  : mcasp.oe674 (.text:McASPDlbRegWrite)
                  c305a420    00000020                  : mcasp.oe674 (.text:McASPGlobalCtlGet)
                  c305a440    00000020                  : mcasp.oe674 (.text:McASPGlobalCtlReset)
                  c305a460    00000020                  : mcasp.oe674 (.text:McASPGlobalCtlSet)
                  c305a480    00000020                  : mcasp.oe674 (.text:McASPPinDirInputSet)
                  c305a4a0    00000020                  : mcasp.oe674 (.text:McASPPinDirOutputSet)
                  c305a4c0    00000020                  : mcasp.oe674 (.text:McASPPinGPIOSet)
                  c305a4e0    00000020                  : mcasp.oe674 (.text:McASPReadFifoDisable)
                  c305a500    00000020                  : mcasp.oe674 (.text:McASPRxClkCheckConfig)
                  c305a520    00000020                  : mcasp.oe674 (.text:McASPRxClkCheckRegRead)
                  c305a540    00000020                  : mcasp.oe674 (.text:McASPRxClkCheckRegWrite)
                  c305a560    00000020                  : mcasp.oe674 (.text:McASPRxClkPolaritySet)
                  c305a580    00000020                  : mcasp.oe674 (.text:McASPRxFmtMaskSet)
                  c305a5a0    00000020                  : mcasp.oe674 (.text:McASPRxFmtSet)
                  c305a5c0    00000020                  : mcasp.oe674 (.text:McASPRxFrameSyncCfg)
                  c305a5e0    00000020                  : mcasp.oe674 (.text:McASPRxGlobalCtlGet)
                  c305a600    00000020                  : mcasp.oe674 (.text:McASPRxGlobalCtlSet)
                  c305a620    00000020                  : mcasp.oe674 (.text:McASPRxIntDisable)
                  c305a640    00000020                  : mcasp.oe674 (.text:McASPRxIntEnable)
                  c305a660    00000020                  : mcasp.oe674 (.text:McASPRxIntrStatusGet)
                  c305a680    00000020                  : mcasp.oe674 (.text:McASPRxReset)
                  c305a6a0    00000020                  : mcasp.oe674 (.text:McASPRxStatusGet)
                  c305a6c0    00000020                  : mcasp.oe674 (.text:McASPRxStatusSet)
                  c305a6e0    00000020                  : mcasp.oe674 (.text:McASPRxTimeSlotSet)
                  c305a700    00000020                  : mcasp.oe674 (.text:McASPSerializerSet)
                  c305a720    00000020                  : mcasp.oe674 (.text:McASPTxClkCheckConfig)
                  c305a740    00000020                  : mcasp.oe674 (.text:McASPTxClkCheckRegRead)
                  c305a760    00000020                  : mcasp.oe674 (.text:McASPTxClkCheckRegWrite)
                  c305a780    00000020                  : mcasp.oe674 (.text:McASPTxClkPolaritySet)
                  c305a7a0    00000020                  : mcasp.oe674 (.text:McASPTxFmtMaskSet)
                  c305a7c0    00000020                  : mcasp.oe674 (.text:McASPTxFmtSet)
                  c305a7e0    00000020                  : mcasp.oe674 (.text:McASPTxFrameSyncCfg)
                  c305a800    00000020                  : mcasp.oe674 (.text:McASPTxGlobalCtlGet)
                  c305a820    00000020                  : mcasp.oe674 (.text:McASPTxGlobalCtlSet)
                  c305a840    00000020                  : mcasp.oe674 (.text:McASPTxIntDisable)
                  c305a860    00000020                  : mcasp.oe674 (.text:McASPTxIntEnable)
                  c305a880    00000020                  : mcasp.oe674 (.text:McASPTxIntrStatusGet)
                  c305a8a0    00000020                  : mcasp.oe674 (.text:McASPTxReset)
                  c305a8c0    00000020                  : mcasp.oe674 (.text:McASPTxRxClkSyncDisable)
                  c305a8e0    00000020                  : mcasp.oe674 (.text:McASPTxRxClkSyncEnable)
                  c305a900    00000020                  : mcasp.oe674 (.text:McASPTxRxDMAEvtCntrlWrite)
                  c305a920    00000020                  : mcasp.oe674 (.text:McASPTxRxFrameSyncRead)
                  c305a940    00000020                  : mcasp.oe674 (.text:McASPTxStatusGet)
                  c305a960    00000020                  : mcasp.oe674 (.text:McASPTxStatusSet)
                  c305a980    00000020                  : mcasp.oe674 (.text:McASPTxTimeSlotSet)
                  c305a9a0    00000020                  : mcasp.oe674 (.text:McASPWriteFifoDisable)
                  c305a9c0    00000020     ti.osal.ae674 : MuxIntcP_tirtos.oe674 (.text:MuxIntcP_clearInEvent)
                  c305a9e0    00000020                   : MuxIntcP_tirtos.oe674 (.text:MuxIntcP_disableOutEvent)
                  c305aa00    00000020                   : MuxIntcP_tirtos.oe674 (.text:MuxIntcP_enableOutEvent)
                  c305aa20    00000020                   : Queue_tirtos.oe674 (.text:Osal_Queue_construct)
                  c305aa40    00000020                   : Queue_tirtos.oe674 (.text:Osal_Queue_empty)
                  c305aa60    00000020                   : Queue_tirtos.oe674 (.text:Osal_Queue_get)
                  c305aa80    00000020                   : Queue_tirtos.oe674 (.text:Osal_Queue_handle)
                  c305aaa0    00000020                   : Queue_tirtos.oe674 (.text:Osal_Queue_put)
                  c305aac0    00000020     ti.drv.uart.ae674 : UART_drv.oe674 (.text:UART_Params_init)
                  c305aae0    00000020                       : UART_v0.oe674 (.text:UART_control_v0$0)
                  c305ab00    00000020     ti.csl.ae674 : uart.oe674 (.text:UART_divisorLatchDisable_v0)
                  c305ab20    00000020                  : uart.oe674 (.text:UART_fIFOCharPut_v0)
                  c305ab40    00000020                  : uart.oe674 (.text:UART_fifoEmpty_v0)
                  c305ab60    00000020     ti.drv.uart.ae674 : UART_v0.oe674 (.text:UART_init_v0$0)
                  c305ab80    00000020     ti.csl.ae674 : uart.oe674 (.text:UART_operatingModeSelect_v0)
                  c305aba0    00000020                  : uart.oe674 (.text:UART_pwremuConfig_v0)
                  c305abc0    00000020     rts6740_elf.lib : _lock.obj (.text:_nop)
                  c305abe0    00000020                     : _lock.obj (.text:_register_lock)
                  c305ac00    00000020                     : _lock.obj (.text:_register_unlock)
                  c305ac20    00000020     sysbios.ae674 : c62_TaskSupport_asm.obj (.text:_ti_sysbios_family_c62_TaskSupport_glue)
                  c305ac40    00000020     rts6740_elf.lib : exit.obj (.text:abort)
                  c305ac60    00000020                     : copy_decompress_none.obj (.text:decompress:none:__TI_decompress_none)
                  c305ac80    00000020                     : copy_decompress_rle.obj (.text:decompress:rle24:__TI_decompress_rle24)
                  c305aca0    00000020     edma3_lld_drv_sample.ae674 : sample_omapl138_cfg.oe674 (.text:determineProcId)
                  c305acc0    00000020                                : sample_omapl138_int_reg.oe674 (.text:disableErrorInterrupt)
                  c305ace0    00000020                                : sample_omapl138_int_reg.oe674 (.text:disableXferCompInterrupt)
                  c305ad00    00000020                                : sample_omapl138_int_reg.oe674 (.text:enableErrorInterrupt)
                  c305ad20    00000020                                : sample_omapl138_int_reg.oe674 (.text:enableXferCompInterrupt)
                  c305ad40    00000020                                : sample_omapl138_cfg.oe674 (.text:isGblConfigRequired)
                  c305ad60    00000020     edma3_lld_rm.ae674 : edma3resmgr.oe674 (.text:lisrEdma3CCErrHandler0)
                  c305ad80    00000020                        : edma3resmgr.oe674 (.text:lisrEdma3ComplHandler0)
                  c305ada0    00000020                        : edma3resmgr.oe674 (.text:lisrEdma3TC0ErrHandler0)
                  c305adc0    00000020                        : edma3resmgr.oe674 (.text:lisrEdma3TC1ErrHandler0)
                  c305ade0    00000020                        : edma3resmgr.oe674 (.text:lisrEdma3TC2ErrHandler0)
                  c305ae00    00000020                        : edma3resmgr.oe674 (.text:lisrEdma3TC3ErrHandler0)
                  c305ae20    00000020                        : edma3resmgr.oe674 (.text:lisrEdma3TC4ErrHandler0)
                  c305ae40    00000020                        : edma3resmgr.oe674 (.text:lisrEdma3TC5ErrHandler0)
                  c305ae60    00000020                        : edma3resmgr.oe674 (.text:lisrEdma3TC6ErrHandler0)
                  c305ae80    00000020                        : edma3resmgr.oe674 (.text:lisrEdma3TC7ErrHandler0)
                  c305aea0    00000020     ti.drv.mcasp.ae674 : mcasp_drv.oe674 (.text:mcaspIsr)
                  c305aec0    00000020     app_mcasp_pe674.oe674 (.text:ti_sysbios_BIOS_RtsGateProxy_enter__E)
                  c305aee0    00000020     app_mcasp_pe674.oe674 (.text:ti_sysbios_BIOS_RtsGateProxy_leave__E)
                  c305af00    00000020     sysbios.ae674 : BIOS.obj (.text:ti_sysbios_BIOS_getThreadType__E)
                  c305af20    00000020                   : BIOS.obj (.text:ti_sysbios_BIOS_linkedWithIncorrectBootLibrary__E)
                  c305af40    00000020     app_mcasp_pe674.oe674 (.text:ti_sysbios_BIOS_nullFunc__I)
                  c305af60    00000020     sysbios.ae674 : BIOS.obj (.text:ti_sysbios_BIOS_setThreadType__E)
                  c305af80    00000020                   : BIOS.obj (.text:ti_sysbios_BIOS_start__E)
                  c305afa0    00000020     app_mcasp_pe674.oe674 (.text:ti_sysbios_family_c62_TaskSupport_Module__startupDone__S)
                  c305afc0    00000020     sysbios.ae674 : BIOS.obj (.text:ti_sysbios_family_c64p_Cache_inv__E)
                  c305afe0    00000020                   : BIOS.obj (.text:ti_sysbios_family_c64p_Cache_wbInv__E)
                  c305b000    00000020                   : BIOS.obj (.text:ti_sysbios_family_c64p_Cache_wb__E)
                  c305b020    00000020     app_mcasp_pe674.oe674 (.text:ti_sysbios_family_c64p_Hwi_Module__startupDone__F)
                  c305b040    00000020     app_mcasp_pe674.oe674 (.text:ti_sysbios_family_c64p_Hwi_Params__init__S)
                  c305b060    00000020     sysbios.ae674 : BIOS.obj (.text:ti_sysbios_family_c64p_Hwi_clearInterrupt__E)
                  c305b080    00000020                   : BIOS.obj (.text:ti_sysbios_family_c64p_Hwi_getFunc__E)
                  c305b0a0    00000020                   : BIOS.obj (.text:ti_sysbios_family_c64p_Hwi_getHandle__E)
                  c305b0c0    00000020                   : BIOS.obj (.text:ti_sysbios_family_c64p_Hwi_startup__E)
                  c305b0e0    00000020                   : BIOS.obj (.text:ti_sysbios_family_c64p_Hwi_switchFromBootStack__E)
                  c305b100    00000020                   : BIOS.obj (.text:ti_sysbios_family_c64p_Hwi_unPluggedInterrupt__I)
                  c305b120    00000020                   : BIOS.obj (.text:ti_sysbios_family_c64p_TimestampProvider_Module_startup__E)
                  c305b140    00000020                   : BIOS.obj (.text:ti_sysbios_family_c64p_TimestampProvider_get64__E)
                  c305b160    00000020                   : BIOS.obj (.text:ti_sysbios_gates_GateHwi_Instance_init__E)
                  c305b180    00000020                   : BIOS.obj (.text:ti_sysbios_gates_GateHwi_enter__E)
                  c305b1a0    00000020                   : BIOS.obj (.text:ti_sysbios_gates_GateHwi_leave__E)
                  c305b1c0    00000020                   : BIOS.obj (.text:ti_sysbios_gates_GateHwi_query__E)
                  c305b1e0    00000020                   : BIOS.obj (.text:ti_sysbios_gates_GateMutex_Instance_finalize__E)
                  c305b200    00000020                   : BIOS.obj (.text:ti_sysbios_gates_GateMutex_query__E)
                  c305b220    00000020                   : BIOS.obj (.text:ti_sysbios_hal_Hwi_Module_startup__E)
                  c305b240    00000020     app_mcasp_pe674.oe674 (.text:ti_sysbios_heaps_HeapMem_Module_GateProxy_enter__E)
                  c305b260    00000020     app_mcasp_pe674.oe674 (.text:ti_sysbios_heaps_HeapMem_Module_GateProxy_leave__E)
                  c305b280    00000020     sysbios.ae674 : BIOS.obj (.text:ti_sysbios_heaps_HeapMem_isBlocking__E)
                  c305b2a0    00000020     app_mcasp_pe674.oe674 (.text:ti_sysbios_io_DEV_Object__get__S)
                  c305b2c0    00000020     app_mcasp_pe674.oe674 (.text:ti_sysbios_knl_Clock_TimerProxy_getMaxTicks__E)
                  c305b2e0    00000020     sysbios.ae674 : BIOS.obj (.text:ti_sysbios_knl_Idle_loop__E)
                  c305b300    00000020                   : BIOS.obj (.text:ti_sysbios_knl_Queue_Instance_init__E)
                  c305b320    00000020     app_mcasp_pe674.oe674 (.text:ti_sysbios_knl_Queue_Object__get__S)
                  c305b340    00000020     app_mcasp_pe674.oe674 (.text:ti_sysbios_knl_Queue_destruct)
                  c305b360    00000020     sysbios.ae674 : BIOS.obj (.text:ti_sysbios_knl_Queue_empty__E)
                  c305b380    00000020                   : BIOS.obj (.text:ti_sysbios_knl_Semaphore_Instance_finalize__E)
                  c305b3a0    00000020     app_mcasp_pe674.oe674 (.text:ti_sysbios_knl_Semaphore_Params__init__S)
                  c305b3c0    00000020     sysbios.ae674 : BIOS.obj (.text:ti_sysbios_knl_Swi_disable__E)
                  c305b3e0    00000020                   : BIOS.obj (.text:ti_sysbios_knl_Task_disable__E)
                  c305b400    00000020                   : BIOS.obj (.text:ti_sysbios_knl_Task_startup__E)
                  c305b420    00000020     app_mcasp_pe674.oe674 (.text:ti_sysbios_timers_timer64_Timer_Module__startupDone__F)
                  c305b440    00000020     sysbios.ae674 : BIOS.obj (.text:ti_sysbios_timers_timer64_Timer_getMaxTicks__E)
                  c305b460    00000020     ti.targets.rts6000.ae674 : Error.oe674 (.text:xdc_runtime_Error_getSite__E)
                  c305b480    00000020                              : Error.oe674 (.text:xdc_runtime_Error_raiseX__E)
                  c305b4a0    00000020                              : Gate.oe674 (.text:xdc_runtime_Gate_enterSystem__E)
                  c305b4c0    00000020                              : Gate.oe674 (.text:xdc_runtime_Gate_leaveSystem__E)
                  c305b4e0    00000020     app_mcasp_pe674.oe674 (.text:xdc_runtime_IHeap_alloc)
                  c305b500    00000020     app_mcasp_pe674.oe674 (.text:xdc_runtime_IHeap_free)
                  c305b520    00000020     app_mcasp_pe674.oe674 (.text:xdc_runtime_LoggerBuf_Module_GateProxy_enter__E)
                  c305b540    00000020     app_mcasp_pe674.oe674 (.text:xdc_runtime_LoggerBuf_Module_GateProxy_leave__E)
                  c305b560    00000020     ti.targets.rts6000.ae674 : LoggerBuf.oe674 (.text:xdc_runtime_LoggerBuf_disable__E)
                  c305b580    00000020                              : LoggerBuf.oe674 (.text:xdc_runtime_LoggerBuf_enable__E)
                  c305b5a0    00000020                              : Memory.oe674 (.text:xdc_runtime_Memory_calloc__E)
                  c305b5c0    00000020                              : Memory.oe674 (.text:xdc_runtime_Memory_free__E)
                  c305b5e0    00000020                              : Memory.oe674 (.text:xdc_runtime_Memory_getMaxDefaultTypeAlign__E)
                  c305b600    00000020     app_mcasp_pe674.oe674 (.text:xdc_runtime_Startup_exec__I)
                  c305b620    00000020     app_mcasp_pe674.oe674 (.text:xdc_runtime_Startup_reset__I)
                  c305b640    00000020     ti.targets.rts6000.ae674 : Startup.oe674 (.text:xdc_runtime_Startup_rtsDone__E)
                  c305b660    00000020                              : SysMin.oe674 (.text:xdc_runtime_SysMin_ready__E)
                  c305b680    00000020     app_mcasp_pe674.oe674 (.text:xdc_runtime_System_Module_GateProxy_enter__E)
                  c305b6a0    00000020     app_mcasp_pe674.oe674 (.text:xdc_runtime_System_Module_GateProxy_leave__E)
                  c305b6c0    00000020     ti.targets.rts6000.ae674 : System.oe674 (.text:xdc_runtime_System_Module_startup__E)
                  c305b6e0    00000020                              : System.oe674 (.text:xdc_runtime_System_vsnprintf__E)
                  c305b700    00000020                              : Text.oe674 (.text:xdc_runtime_Text_ropeText__E)
                  c305b720    00000020     app_mcasp_pe674.oe674 (.text:xdc_runtime_Text_visitRope__I)

.const     0    c309b428    000034d6     
                  c309b428    0000194f     app_mcasp_pe674.oe674 (.const:xdc_runtime_Text_charTab__A)
                  c309cd77    00000001     app_mcasp_pe674.oe674 (.const:ti_sysbios_timers_timer64_Timer_localTimerBaseId__C)
                  c309cd78    00000548     sysbios.ae674 : BIOS.obj (.const:.string)
                  c309d2c0    0000046c     edma3_lld_rm.ae674 : edma3resmgr.oe674 (.const:.string)
                  c309d72c    00000424     my_aic31.obj (.const:.string)
                  c309db50    00000114     app_mcasp_pe674.oe674 (.const:xdc_runtime_Text_nodeTab__A)
                  c309dc64    000000b4     ti.drv.mcasp.ae674 : mcasp_drv.oe674 (.const:Mcasp_PARAMS)
                  c309dd18    000000b0     edma3_lld_drv.ae674 : edma3_drv_basic.oe674 (.const:.string)
                  c309ddc8    000000a8     I2C_soc.obj (.const:I2C_config)
                  c309de70    00000084     edma3_lld_drv.ae674 : edma3_drv_init.oe674 (.const:.string)
                  c309def4    0000007c     app_mcasp_pe674.oe674 (.const:.string)
                  c309df70    00000058     ti.targets.rts6000.ae674 : Error.oe674 (.const:.string)
                  c309dfc8    00000040     main_mcasp.obj (.const:.string)
                  c309e008    00000040     ti.targets.rts6000.ae674 : Text.oe674 (.const:.string)
                  c309e048    00000040     ti.drv.uart.ae674 : UART_drv.oe674 (.const:UART_defaultParams)
                  c309e088    0000003c     app_mcasp_pe674.oe674 (.const:xdc_runtime_LoggerBuf_Module__FXNS__C)
                  c309e0c4    00000004     ti.targets.rts6000.ae674 : Assert.oe674 (.const:.string)
                  c309e0c8    00000038     app_mcasp_pe674.oe674 (.const:xdc_runtime_Startup_sfxnTab__A)
                  c309e100    00000030     ti.drv.uart.ae674 : UART_v0.oe674 (.const:UART_FxnTable_v0)
                  c309e130    00000030                       : UART_soc.oe674 (.const:UART_config)
                  c309e160    00000030     app_mcasp_pe674.oe674 (.const:ti_sysbios_family_c64p_Hwi_Object__PARAMS__C)
                  c309e190    0000002c     ti.targets.rts6000.ae674 : Startup.oe674 (.const:.string)
                  c309e1bc    00000028     ti.drv.i2c.ae674 : I2C_drv.oe674 (.const:I2C_defaultTransaction)
                  c309e1e4    00000028     app_mcasp_pe674.oe674 (.const:ti_sysbios_heaps_HeapMem_Module__FXNS__C)
                  c309e20c    00000028     app_mcasp_pe674.oe674 (.const:xdc_runtime_LoggerBuf_Object__PARAMS__C)
                  c309e234    00000024     ti.drv.uart.ae674 : UART_stdio.oe674 (.const:.string)
                  c309e258    00000024     my_aic31.obj (.const:Aic31_PARAMS)
                  c309e27c    00000024     app_mcasp_pe674.oe674 (.const:ti_sysbios_gates_GateHwi_Module__FXNS__C)
                  c309e2a0    00000024     app_mcasp_pe674.oe674 (.const:ti_sysbios_gates_GateMutex_Module__FXNS__C)
                  c309e2c4    00000024     app_mcasp_pe674.oe674 (.const:ti_sysbios_heaps_HeapMem_Object__PARAMS__C)
                  c309e2e8    00000024     app_mcasp_pe674.oe674 (.const:ti_sysbios_knl_Semaphore_Object__PARAMS__C)
                  c309e30c    00000020     ti.drv.mcasp.ae674 : mcasp_drv.oe674 (.const:$P$T0$1$0)
                  c309e32c    00000020                        : mcasp_edma.oe674 (.const:$P$T0$1$0)
                  c309e34c    00000020                        : mcasp_edma.oe674 (.const:$P$T1$2$0)
                  c309e36c    00000020                        : mcasp_drv.oe674 (.const:$P$T2$3$0)
                  c309e38c    00000020                        : mcasp_edma.oe674 (.const:$P$T2$3$0)
                  c309e3ac    00000020     ti.osal.ae674 : SemaphoreP_tirtos.oe674 (.const:.string)
                  c309e3cc    00000020     app_mcasp_pe674.oe674 (.const:ti_sysbios_family_c64p_Hwi_Object__DESC__C)
                  c309e3ec    00000020     app_mcasp_pe674.oe674 (.const:ti_sysbios_gates_GateHwi_Object__DESC__C)
                  c309e40c    00000020     app_mcasp_pe674.oe674 (.const:ti_sysbios_gates_GateMutex_Object__DESC__C)
                  c309e42c    00000020     app_mcasp_pe674.oe674 (.const:ti_sysbios_heaps_HeapMem_Object__DESC__C)
                  c309e44c    00000020     app_mcasp_pe674.oe674 (.const:ti_sysbios_knl_Queue_Object__DESC__C)
                  c309e46c    00000020     app_mcasp_pe674.oe674 (.const:ti_sysbios_knl_Semaphore_Object__DESC__C)
                  c309e48c    00000020     app_mcasp_pe674.oe674 (.const:xdc_runtime_LoggerBuf_Object__DESC__C)
                  c309e4ac    0000001c     ti.drv.uart.ae674 : UART_v0.oe674 (.const:.string)
                  c309e4c8    0000001c     ti.osal.ae674 : HwiP_tirtos.oe674 (.const:.string)
                  c309e4e4    00000004     app_mcasp_pe674.oe674 (.const:ti_sysbios_family_c64p_Cache_EMIFA_BASE__C)
                  c309e4e8    0000001c     app_mcasp_pe674.oe674 (.const:xdc_runtime_Startup_sfxnRts__A)
                  c309e504    00000018     ti.targets.rts6000.ae674 : System.oe674 (.const:.string)
                  c309e51c    00000018     app_mcasp_pe674.oe674 (.const:ti_sysbios_gates_GateHwi_Object__PARAMS__C)
                  c309e534    00000018     app_mcasp_pe674.oe674 (.const:ti_sysbios_gates_GateMutex_Object__PARAMS__C)
                  c309e54c    00000018     app_mcasp_pe674.oe674 (.const:ti_sysbios_knl_Queue_Object__PARAMS__C)
                  c309e564    00000014     ti.drv.mcasp.ae674 : mcasp_edma.oe674 (.const:.string)
                  c309e578    00000014                        : mcasp_ioctl.oe674 (.const:.string)
                  c309e58c    00000014     ti.drv.i2c.ae674 : I2C_v0.oe674 (.const:I2C_v0_FxnTable)
                  c309e5a0    00000010                      : I2C_drv.oe674 (.const:.string)
                  c309e5b0    00000010                      : I2C_v0.oe674 (.const:.string)
                  c309e5c0    00000010     ti.drv.mcasp.ae674 : mcasp_drv.oe674 (.const:.string)
                  c309e5d0    00000010     ti.drv.i2c.ae674 : I2C_drv.oe674 (.const:I2C_defaultParams)
                  c309e5e0    00000010     app_mcasp_pe674.oe674 (.const:ti_sysbios_family_c64p_EventCombiner_EVTMASK__C)
                  c309e5f0    0000000a     ADC_sampletask.obj (.const:.string:$P$T0$1)
                  c309e5fa    00000002     app_mcasp_pe674.oe674 (.const:ti_sysbios_family_c64p_Cache_Module__id__C)
                  c309e5fc    00000008     app_mcasp_pe674.oe674 (.const:ti_sysbios_knl_Idle_funcList__C)
                  c309e604    00000004     app_mcasp_pe674.oe674 (.const:ti_sysbios_family_c64p_Cache_EMIFA_CFG__C)
                  c309e608    00000008     app_mcasp_pe674.oe674 (.const:xdc_runtime_Startup_firstFxns__A)
                  c309e610    00000008     app_mcasp_pe674.oe674 (.const:xdc_runtime_Startup_firstFxns__C)
                  c309e618    00000008     app_mcasp_pe674.oe674 (.const:xdc_runtime_Startup_lastFxns__C)
                  c309e620    00000004     app_mcasp_pe674.oe674 (.const:ti_sysbios_family_c64p_Cache_EMIFA_LENGTH__C)
                  c309e624    00000004     app_mcasp_pe674.oe674 (.const:ti_sysbios_family_c64p_Cache_EMIFB_BASE__C)
                  c309e628    00000004     app_mcasp_pe674.oe674 (.const:ti_sysbios_family_c64p_Cache_EMIFB_CFG__C)
                  c309e62c    00000004     app_mcasp_pe674.oe674 (.const:ti_sysbios_family_c64p_Cache_EMIFB_LENGTH__C)
                  c309e630    00000004     app_mcasp_pe674.oe674 (.const:ti_sysbios_family_c64p_Cache_EMIFC_BASE__C)
                  c309e634    00000004     app_mcasp_pe674.oe674 (.const:ti_sysbios_family_c64p_Cache_EMIFC_CFG__C)
                  c309e638    00000004     app_mcasp_pe674.oe674 (.const:ti_sysbios_family_c64p_Cache_EMIFC_LENGTH__C)
                  c309e63c    00000004     app_mcasp_pe674.oe674 (.const:ti_sysbios_family_c64p_Cache_E_invalidL1CacheSize__C)
                  c309e640    00000004     app_mcasp_pe674.oe674 (.const:ti_sysbios_family_c64p_Cache_E_invalidL2CacheSize__C)
                  c309e644    00000004     app_mcasp_pe674.oe674 (.const:ti_sysbios_family_c64p_Cache_MAR0_31__C)
                  c309e648    00000004     app_mcasp_pe674.oe674 (.const:ti_sysbios_family_c64p_Cache_MAR128_159__C)
                  c309e64c    00000004     app_mcasp_pe674.oe674 (.const:ti_sysbios_family_c64p_Cache_MAR160_191__C)
                  c309e650    00000004     app_mcasp_pe674.oe674 (.const:ti_sysbios_family_c64p_Cache_MAR192_223__C)
                  c309e654    00000004     app_mcasp_pe674.oe674 (.const:ti_sysbios_family_c64p_Cache_MAR224_255__C)
                  c309e658    00000004     app_mcasp_pe674.oe674 (.const:ti_sysbios_family_c64p_Cache_MAR32_63__C)
                  c309e65c    00000004     app_mcasp_pe674.oe674 (.const:ti_sysbios_family_c64p_Cache_MAR64_95__C)
                  c309e660    00000004     app_mcasp_pe674.oe674 (.const:ti_sysbios_family_c64p_Cache_MAR96_127__C)
                  c309e664    00000004     app_mcasp_pe674.oe674 (.const:ti_sysbios_family_c64p_EventCombiner_A_invalidEventId__C)
                  c309e668    00000004     app_mcasp_pe674.oe674 (.const:ti_sysbios_family_c64p_EventCombiner_E_unpluggedEvent__C)
                  c309e66c    00000004     app_mcasp_pe674.oe674 (.const:ti_sysbios_family_c64p_EventCombiner_Module__diagsEnabled__C)
                  c309e670    00000004     app_mcasp_pe674.oe674 (.const:ti_sysbios_family_c64p_EventCombiner_Module__diagsIncluded__C)
                  c309e674    00000004     app_mcasp_pe674.oe674 (.const:ti_sysbios_family_c64p_EventCombiner_Module__diagsMask__C)
                  c309e678    00000004     app_mcasp_pe674.oe674 (.const:ti_sysbios_family_c64p_Exception_E_exceptionMax__C)
                  c309e67c    00000004     app_mcasp_pe674.oe674 (.const:ti_sysbios_family_c64p_Exception_exceptionHook__C)
                  c309e680    00000004     app_mcasp_pe674.oe674 (.const:ti_sysbios_family_c64p_Exception_externalHook__C)
                  c309e684    00000004     app_mcasp_pe674.oe674 (.const:ti_sysbios_family_c64p_Exception_internalHook__C)
                  c309e688    00000004     app_mcasp_pe674.oe674 (.const:ti_sysbios_family_c64p_Exception_nmiHook__C)
                  c309e68c    00000004     app_mcasp_pe674.oe674 (.const:ti_sysbios_family_c64p_Hwi_E_alreadyDefined__C)
                  c309e690    00000004     app_mcasp_pe674.oe674 (.const:ti_sysbios_family_c64p_Hwi_E_handleNotFound__C)
                  c309e694    00000004     app_mcasp_pe674.oe674 (.const:ti_sysbios_family_c64p_Hwi_E_invalidIntNum__C)
                  c309e698    00000004     app_mcasp_pe674.oe674 (.const:ti_sysbios_family_c64p_Hwi_LD_end__C)
                  c309e69c    00000004     app_mcasp_pe674.oe674 (.const:ti_sysbios_family_c64p_Hwi_LM_begin__C)
                  c309e6a0    00000004     app_mcasp_pe674.oe674 (.const:ti_sysbios_family_c64p_Hwi_Module__diagsEnabled__C)
                  c309e6a4    00000004     app_mcasp_pe674.oe674 (.const:ti_sysbios_family_c64p_Hwi_Module__diagsIncluded__C)
                  c309e6a8    00000004     app_mcasp_pe674.oe674 (.const:ti_sysbios_family_c64p_Hwi_Module__diagsMask__C)
                  c309e6ac    00000004     app_mcasp_pe674.oe674 (.const:ti_sysbios_family_c64p_Hwi_Module__loggerFxn1__C)
                  c309e6b0    00000004     app_mcasp_pe674.oe674 (.const:ti_sysbios_family_c64p_Hwi_Module__loggerFxn8__C)
                  c309e6b4    00000004     app_mcasp_pe674.oe674 (.const:ti_sysbios_family_c64p_Hwi_Module__loggerObj__C)
                  c309e6b8    00000004     app_mcasp_pe674.oe674 (.const:ti_sysbios_gates_GateMutex_A_badContext__C)
                  c309e6bc    00000004     app_mcasp_pe674.oe674 (.const:ti_sysbios_gates_GateMutex_Instance_State_sem__O)
                  c309e6c0    00000004     app_mcasp_pe674.oe674 (.const:ti_sysbios_gates_GateMutex_Module__diagsEnabled__C)
                  c309e6c4    00000004     app_mcasp_pe674.oe674 (.const:ti_sysbios_gates_GateMutex_Module__diagsIncluded__C)
                  c309e6c8    00000004     app_mcasp_pe674.oe674 (.const:ti_sysbios_gates_GateMutex_Module__diagsMask__C)
                  c309e6cc    00000004     app_mcasp_pe674.oe674 (.const:ti_sysbios_hal_Hwi_E_stackOverflow__C)
                  c309e6d0    00000004     app_mcasp_pe674.oe674 (.const:ti_sysbios_heaps_HeapMem_A_align__C)
                  c309e6d4    00000004     app_mcasp_pe674.oe674 (.const:ti_sysbios_heaps_HeapMem_A_heapSize__C)
                  c309e6d8    00000004     app_mcasp_pe674.oe674 (.const:ti_sysbios_heaps_HeapMem_A_invalidFree__C)
                  c309e6dc    00000004     app_mcasp_pe674.oe674 (.const:ti_sysbios_heaps_HeapMem_A_zeroBlock__C)
                  c309e6e0    00000004     app_mcasp_pe674.oe674 (.const:ti_sysbios_heaps_HeapMem_E_memory__C)
                  c309e6e4    00000004     app_mcasp_pe674.oe674 (.const:ti_sysbios_heaps_HeapMem_Module__diagsEnabled__C)
                  c309e6e8    00000004     app_mcasp_pe674.oe674 (.const:ti_sysbios_heaps_HeapMem_Module__diagsIncluded__C)
                  c309e6ec    00000004     app_mcasp_pe674.oe674 (.const:ti_sysbios_heaps_HeapMem_Module__diagsMask__C)
                  c309e6f0    00000004     app_mcasp_pe674.oe674 (.const:ti_sysbios_heaps_HeapMem_Module__gateObj__C)
                  c309e6f4    00000004     app_mcasp_pe674.oe674 (.const:ti_sysbios_heaps_HeapMem_Object__count__C)
                  c309e6f8    00000004     app_mcasp_pe674.oe674 (.const:ti_sysbios_heaps_HeapMem_reqAlign__C)
                  c309e6fc    00000004     app_mcasp_pe674.oe674 (.const:ti_sysbios_io_DEV_Object__count__C)
                  c309e700    00000004     app_mcasp_pe674.oe674 (.const:ti_sysbios_io_DEV_tableSize__C)
                  c309e704    00000004     app_mcasp_pe674.oe674 (.const:ti_sysbios_knl_Clock_LM_begin__C)
                  c309e708    00000004     app_mcasp_pe674.oe674 (.const:ti_sysbios_knl_Clock_LM_tick__C)
                  c309e70c    00000004     app_mcasp_pe674.oe674 (.const:ti_sysbios_knl_Clock_LW_delayed__C)
                  c309e710    00000004     app_mcasp_pe674.oe674 (.const:ti_sysbios_knl_Clock_Module_State_clockQ__O)
                  c309e714    00000004     app_mcasp_pe674.oe674 (.const:ti_sysbios_knl_Clock_Module__diagsEnabled__C)
                  c309e718    00000004     app_mcasp_pe674.oe674 (.const:ti_sysbios_knl_Clock_Module__diagsIncluded__C)
                  c309e71c    00000004     app_mcasp_pe674.oe674 (.const:ti_sysbios_knl_Clock_Module__diagsMask__C)
                  c309e720    00000004     app_mcasp_pe674.oe674 (.const:ti_sysbios_knl_Clock_Module__loggerFxn1__C)
                  c309e724    00000004     app_mcasp_pe674.oe674 (.const:ti_sysbios_knl_Clock_Module__loggerFxn2__C)
                  c309e728    00000004     app_mcasp_pe674.oe674 (.const:ti_sysbios_knl_Clock_Module__loggerObj__C)
                  c309e72c    00000004     app_mcasp_pe674.oe674 (.const:ti_sysbios_knl_Semaphore_A_badContext__C)
                  c309e730    00000004     app_mcasp_pe674.oe674 (.const:ti_sysbios_knl_Idle_funcList__A)
                  c309e734    00000004     app_mcasp_pe674.oe674 (.const:ti_sysbios_knl_Semaphore_A_noEvents__C)
                  c309e738    00000004     app_mcasp_pe674.oe674 (.const:ti_sysbios_knl_Semaphore_A_overflow__C)
                  c309e73c    00000004     app_mcasp_pe674.oe674 (.const:ti_sysbios_knl_Semaphore_A_pendTaskDisabled__C)
                  c309e740    00000004     app_mcasp_pe674.oe674 (.const:ti_sysbios_knl_Semaphore_Instance_State_pendQ__O)
                  c309e744    00000004     app_mcasp_pe674.oe674 (.const:ti_sysbios_knl_Semaphore_LM_pend__C)
                  c309e748    00000004     app_mcasp_pe674.oe674 (.const:ti_sysbios_knl_Semaphore_LM_post__C)
                  c309e74c    00000004     app_mcasp_pe674.oe674 (.const:ti_sysbios_knl_Semaphore_Module__diagsEnabled__C)
                  c309e750    00000004     app_mcasp_pe674.oe674 (.const:ti_sysbios_knl_Semaphore_Module__diagsIncluded__C)
                  c309e754    00000004     app_mcasp_pe674.oe674 (.const:ti_sysbios_knl_Semaphore_Module__diagsMask__C)
                  c309e758    00000004     app_mcasp_pe674.oe674 (.const:ti_sysbios_knl_Semaphore_Module__loggerFxn2__C)
                  c309e75c    00000004     app_mcasp_pe674.oe674 (.const:ti_sysbios_knl_Semaphore_Module__loggerFxn4__C)
                  c309e760    00000004     app_mcasp_pe674.oe674 (.const:ti_sysbios_knl_Semaphore_Module__loggerObj__C)
                  c309e764    00000004     app_mcasp_pe674.oe674 (.const:ti_sysbios_knl_Swi_LD_end__C)
                  c309e768    00000004     app_mcasp_pe674.oe674 (.const:ti_sysbios_knl_Swi_LM_begin__C)
                  c309e76c    00000004     app_mcasp_pe674.oe674 (.const:ti_sysbios_knl_Swi_LM_post__C)
                  c309e770    00000004     app_mcasp_pe674.oe674 (.const:ti_sysbios_knl_Swi_Module__diagsEnabled__C)
                  c309e774    00000004     app_mcasp_pe674.oe674 (.const:ti_sysbios_knl_Swi_Module__diagsIncluded__C)
                  c309e778    00000004     app_mcasp_pe674.oe674 (.const:ti_sysbios_knl_Swi_Module__diagsMask__C)
                  c309e77c    00000004     app_mcasp_pe674.oe674 (.const:ti_sysbios_knl_Swi_Module__loggerFxn1__C)
                  c309e780    00000004     app_mcasp_pe674.oe674 (.const:ti_sysbios_knl_Swi_Module__loggerFxn4__C)
                  c309e784    00000004     app_mcasp_pe674.oe674 (.const:ti_sysbios_knl_Swi_Module__loggerObj__C)
                  c309e788    00000004     app_mcasp_pe674.oe674 (.const:ti_sysbios_knl_Swi_Object__count__C)
                  c309e78c    00000004     app_mcasp_pe674.oe674 (.const:ti_sysbios_knl_Task_A_badTimeout__C)
                  c309e790    00000004     app_mcasp_pe674.oe674 (.const:ti_sysbios_knl_Task_A_sleepTaskDisabled__C)
                  c309e794    00000004     app_mcasp_pe674.oe674 (.const:ti_sysbios_knl_Task_LD_block__C)
                  c309e798    00000004     app_mcasp_pe674.oe674 (.const:ti_sysbios_knl_Task_LD_exit__C)
                  c309e79c    00000004     app_mcasp_pe674.oe674 (.const:ti_sysbios_knl_Task_LD_ready__C)
                  c309e7a0    00000004     app_mcasp_pe674.oe674 (.const:ti_sysbios_knl_Task_LM_sleep__C)
                  c309e7a4    00000004     app_mcasp_pe674.oe674 (.const:ti_sysbios_knl_Task_LM_switch__C)
                  c309e7a8    00000004     app_mcasp_pe674.oe674 (.const:ti_sysbios_knl_Task_Module_State_inactiveQ__O)
                  c309e7ac    00000004     app_mcasp_pe674.oe674 (.const:ti_sysbios_knl_Task_Module__diagsEnabled__C)
                  c309e7b0    00000004     app_mcasp_pe674.oe674 (.const:ti_sysbios_knl_Task_Module__diagsIncluded__C)
                  c309e7b4    00000004     app_mcasp_pe674.oe674 (.const:ti_sysbios_knl_Task_Module__diagsMask__C)
                  c309e7b8    00000004     app_mcasp_pe674.oe674 (.const:ti_sysbios_knl_Task_Module__loggerFxn2__C)
                  c309e7bc    00000004     app_mcasp_pe674.oe674 (.const:ti_sysbios_knl_Task_Module__loggerFxn4__C)
                  c309e7c0    00000004     app_mcasp_pe674.oe674 (.const:ti_sysbios_knl_Task_Module__loggerObj__C)
                  c309e7c4    00000004     app_mcasp_pe674.oe674 (.const:ti_sysbios_knl_Task_Object__count__C)
                  c309e7c8    00000004     app_mcasp_pe674.oe674 (.const:ti_sysbios_knl_Task_allBlockedFunc__C)
                  c309e7cc    00000004     app_mcasp_pe674.oe674 (.const:ti_sysbios_knl_Task_numConstructedTasks__C)
                  c309e7d0    00000004     app_mcasp_pe674.oe674 (.const:ti_sysbios_timers_timer64_Timer_A_notAvailable__C)
                  c309e7d4    00000004     app_mcasp_pe674.oe674 (.const:ti_sysbios_timers_timer64_Timer_E_cannotSupport__C)
                  c309e7d8    00000004     app_mcasp_pe674.oe674 (.const:ti_sysbios_timers_timer64_Timer_Module__diagsEnabled__C)
                  c309e7dc    00000004     app_mcasp_pe674.oe674 (.const:ti_sysbios_timers_timer64_Timer_Module__diagsIncluded__C)
                  c309e7e0    00000004     app_mcasp_pe674.oe674 (.const:ti_sysbios_timers_timer64_Timer_Module__diagsMask__C)
                  c309e7e4    00000004     app_mcasp_pe674.oe674 (.const:ti_sysbios_timers_timer64_Timer_anyMaskHigh__C)
                  c309e7e8    00000004     app_mcasp_pe674.oe674 (.const:ti_sysbios_timers_timer64_Timer_anyMask__C)
                  c309e7ec    00000004     app_mcasp_pe674.oe674 (.const:ti_sysbios_timers_timer64_Timer_freqDivisor__C)
                  c309e7f0    00000004     app_mcasp_pe674.oe674 (.const:ti_sysbios_timers_timer64_Timer_numLocalTimers__C)
                  c309e7f4    00000004     app_mcasp_pe674.oe674 (.const:ti_sysbios_timers_timer64_Timer_numTimerDevices__C)
                  c309e7f8    00000004     app_mcasp_pe674.oe674 (.const:xdc_runtime_Assert_E_assertFailed__C)
                  c309e7fc    00000004     app_mcasp_pe674.oe674 (.const:xdc_runtime_Core_A_initializedParams__C)
                  c309e800    00000004     app_mcasp_pe674.oe674 (.const:xdc_runtime_Core_Module__diagsEnabled__C)
                  c309e804    00000004     app_mcasp_pe674.oe674 (.const:xdc_runtime_Core_Module__diagsIncluded__C)
                  c309e808    00000004     app_mcasp_pe674.oe674 (.const:xdc_runtime_Core_Module__diagsMask__C)
                  c309e80c    00000004     app_mcasp_pe674.oe674 (.const:xdc_runtime_Error_E_generic__C)
                  c309e810    00000004     app_mcasp_pe674.oe674 (.const:xdc_runtime_Error_E_memory__C)
                  c309e814    00000004     app_mcasp_pe674.oe674 (.const:xdc_runtime_Error_Module__diagsEnabled__C)
                  c309e818    00000004     app_mcasp_pe674.oe674 (.const:xdc_runtime_Error_Module__diagsIncluded__C)
                  c309e81c    00000004     app_mcasp_pe674.oe674 (.const:xdc_runtime_Error_Module__diagsMask__C)
                  c309e820    00000004     app_mcasp_pe674.oe674 (.const:xdc_runtime_Error_Module__loggerFxn8__C)
                  c309e824    00000004     app_mcasp_pe674.oe674 (.const:xdc_runtime_Error_Module__loggerObj__C)
                  c309e828    00000004     app_mcasp_pe674.oe674 (.const:xdc_runtime_Error_policyFxn__C)
                  c309e82c    00000004     app_mcasp_pe674.oe674 (.const:xdc_runtime_Error_policy__C)
                  c309e830    00000004     app_mcasp_pe674.oe674 (.const:xdc_runtime_Error_raiseHook__C)
                  c309e834    00000004     app_mcasp_pe674.oe674 (.const:xdc_runtime_IFilterLogger_Interface__BASE__C)
                  c309e838    00000004     app_mcasp_pe674.oe674 (.const:xdc_runtime_IGateProvider_Interface__BASE__C)
                  c309e83c    00000004     app_mcasp_pe674.oe674 (.const:xdc_runtime_IHeap_Interface__BASE__C)
                  c309e840    00000004     app_mcasp_pe674.oe674 (.const:xdc_runtime_ILogger_Interface__BASE__C)
                  c309e844    00000004     app_mcasp_pe674.oe674 (.const:xdc_runtime_IModule_Interface__BASE__C)
                  c309e848    00000004     app_mcasp_pe674.oe674 (.const:xdc_runtime_Log_L_error__C)
                  c309e84c    00000004     app_mcasp_pe674.oe674 (.const:xdc_runtime_Log_L_info__C)
                  c309e850    00000004     app_mcasp_pe674.oe674 (.const:xdc_runtime_LoggerBuf_E_badLevel__C)
                  c309e854    00000004     app_mcasp_pe674.oe674 (.const:xdc_runtime_LoggerBuf_Module__gateObj__C)
                  c309e858    00000004     app_mcasp_pe674.oe674 (.const:xdc_runtime_LoggerBuf_Object__count__C)
                  c309e85c    00000004     app_mcasp_pe674.oe674 (.const:xdc_runtime_LoggerBuf_statusLogger__C)
                  c309e860    00000004     app_mcasp_pe674.oe674 (.const:xdc_runtime_Main_Module__diagsEnabled__C)
                  c309e864    00000004     app_mcasp_pe674.oe674 (.const:xdc_runtime_Main_Module__diagsIncluded__C)
                  c309e868    00000004     app_mcasp_pe674.oe674 (.const:xdc_runtime_Main_Module__diagsMask__C)
                  c309e86c    00000004     app_mcasp_pe674.oe674 (.const:xdc_runtime_Main_Module__loggerFxn4__C)
                  c309e870    00000004     app_mcasp_pe674.oe674 (.const:xdc_runtime_Main_Module__loggerObj__C)
                  c309e874    00000004     app_mcasp_pe674.oe674 (.const:xdc_runtime_Memory_defaultHeapInstance__C)
                  c309e878    00000004     app_mcasp_pe674.oe674 (.const:xdc_runtime_Startup_execImpl__C)
                  c309e87c    00000004     app_mcasp_pe674.oe674 (.const:xdc_runtime_Startup_maxPasses__C)
                  c309e880    00000004     app_mcasp_pe674.oe674 (.const:xdc_runtime_Startup_sfxnRts__C)
                  c309e884    00000004     app_mcasp_pe674.oe674 (.const:xdc_runtime_Startup_sfxnTab__C)
                  c309e888    00000004     app_mcasp_pe674.oe674 (.const:xdc_runtime_SysMin_bufSize__C)
                  c309e88c    00000004     app_mcasp_pe674.oe674 (.const:xdc_runtime_SysMin_outputFunc__C)
                  c309e890    00000004     app_mcasp_pe674.oe674 (.const:xdc_runtime_System_Module__gateObj__C)
                  c309e894    00000004     app_mcasp_pe674.oe674 (.const:xdc_runtime_System_abortFxn__C)
                  c309e898    00000004     app_mcasp_pe674.oe674 (.const:xdc_runtime_System_exitFxn__C)
                  c309e89c    00000004     app_mcasp_pe674.oe674 (.const:xdc_runtime_System_extendFxn__C)
                  c309e8a0    00000004     app_mcasp_pe674.oe674 (.const:xdc_runtime_System_maxAtexitHandlers__C)
                  c309e8a4    00000004     app_mcasp_pe674.oe674 (.const:xdc_runtime_Text_charTab__C)
                  c309e8a8    00000004     app_mcasp_pe674.oe674 (.const:xdc_runtime_Text_nameEmpty__C)
                  c309e8ac    00000004     app_mcasp_pe674.oe674 (.const:xdc_runtime_Text_nameStatic__C)
                  c309e8b0    00000004     app_mcasp_pe674.oe674 (.const:xdc_runtime_Text_nameUnknown__C)
                  c309e8b4    00000004     app_mcasp_pe674.oe674 (.const:xdc_runtime_Text_nodeTab__C)
                  c309e8b8    00000004     app_mcasp_pe674.oe674 (.const:xdc_runtime_Text_visitRopeFxn__C)
                  c309e8bc    00000002     app_mcasp_pe674.oe674 (.const:ti_sysbios_family_c64p_EventCombiner_Module__id__C)
                  c309e8be    00000002     app_mcasp_pe674.oe674 (.const:ti_sysbios_family_c64p_Exception_Module__id__C)
                  c309e8c0    00000002     app_mcasp_pe674.oe674 (.const:ti_sysbios_family_c64p_Exception_useInternalBuffer__C)
                  c309e8c2    00000002     app_mcasp_pe674.oe674 (.const:ti_sysbios_family_c64p_Hwi_Module__id__C)
                  c309e8c4    00000002     app_mcasp_pe674.oe674 (.const:ti_sysbios_family_c64p_Hwi_Module__loggerDefined__C)
                  c309e8c6    00000002     app_mcasp_pe674.oe674 (.const:ti_sysbios_gates_GateMutex_Module__id__C)
                  c309e8c8    00000002     app_mcasp_pe674.oe674 (.const:ti_sysbios_hal_Hwi_Module__id__C)
                  c309e8ca    00000002     app_mcasp_pe674.oe674 (.const:ti_sysbios_heaps_HeapMem_Module__id__C)
                  c309e8cc    00000002     app_mcasp_pe674.oe674 (.const:ti_sysbios_io_DEV_Module__id__C)
                  c309e8ce    00000002     app_mcasp_pe674.oe674 (.const:ti_sysbios_knl_Clock_Module__id__C)
                  c309e8d0    00000002     app_mcasp_pe674.oe674 (.const:ti_sysbios_knl_Clock_Module__loggerDefined__C)
                  c309e8d2    00000002     app_mcasp_pe674.oe674 (.const:ti_sysbios_knl_Semaphore_Module__id__C)
                  c309e8d4    00000002     app_mcasp_pe674.oe674 (.const:ti_sysbios_knl_Semaphore_Module__loggerDefined__C)
                  c309e8d6    00000002     app_mcasp_pe674.oe674 (.const:ti_sysbios_knl_Swi_Module__id__C)
                  c309e8d8    00000002     app_mcasp_pe674.oe674 (.const:ti_sysbios_knl_Swi_Module__loggerDefined__C)
                  c309e8da    00000002     app_mcasp_pe674.oe674 (.const:ti_sysbios_knl_Task_Module__id__C)
                  c309e8dc    00000002     app_mcasp_pe674.oe674 (.const:ti_sysbios_knl_Task_Module__loggerDefined__C)
                  c309e8de    00000002     app_mcasp_pe674.oe674 (.const:ti_sysbios_timers_timer64_Timer_Module__id__C)
                  c309e8e0    00000002     app_mcasp_pe674.oe674 (.const:ti_sysbios_timers_timer64_Timer_startupNeeded__C)
                  c309e8e2    00000002     app_mcasp_pe674.oe674 (.const:ti_sysbios_timers_timer64_Timer_useTimer64pRegMap__C)
                  c309e8e4    00000002     app_mcasp_pe674.oe674 (.const:xdc_runtime_Core_Module__id__C)
                  c309e8e6    00000002     app_mcasp_pe674.oe674 (.const:xdc_runtime_Error_Module__loggerDefined__C)
                  c309e8e8    00000002     app_mcasp_pe674.oe674 (.const:xdc_runtime_Error_maxDepth__C)
                  c309e8ea    00000002     app_mcasp_pe674.oe674 (.const:xdc_runtime_LoggerBuf_Module__id__C)
                  c309e8ec    00000002     app_mcasp_pe674.oe674 (.const:xdc_runtime_LoggerBuf_filterByLevel__C)
                  c309e8ee    00000002     app_mcasp_pe674.oe674 (.const:xdc_runtime_Main_Module__id__C)
                  c309e8f0    00000002     app_mcasp_pe674.oe674 (.const:xdc_runtime_Main_Module__loggerDefined__C)
                  c309e8f2    00000002     app_mcasp_pe674.oe674 (.const:xdc_runtime_Memory_Module__id__C)
                  c309e8f4    00000002     app_mcasp_pe674.oe674 (.const:xdc_runtime_SysMin_flushAtExit__C)
                  c309e8f6    00000002     app_mcasp_pe674.oe674 (.const:xdc_runtime_Text_charCnt__C)
                  c309e8f8    00000002     app_mcasp_pe674.oe674 (.const:xdc_runtime_Text_isLoaded__C)
                  c309e8fa    00000002     app_mcasp_pe674.oe674 (.const:xdc_runtime_Text_registryModsLastId__C)
                  c309e8fc    00000002     app_mcasp_pe674.oe674 (.const:xdc_runtime_Text_unnamedModsLastId__C)

.switch    0    c309e900    00000198     
                  c309e900    00000080     ti.csl.ae674 : csl_chip.oe674 (.switch:CSL_chipReadReg)
                  c309e980    00000038     ti.drv.mcasp.ae674 : mcasp_edma.oe674 (.switch:Mcasp_localEdmaChanPaRAMsetup)
                  c309e9b8    00000030     edma3_lld_drv.ae674 : edma3_drv_adv.oe674 (.switch:EDMA3_DRV_getPaRAMField)
                  c309e9e8    00000020     my_aic3106_if.obj (.switch:AIC31DataConfig)
                  c309ea08    0000001c     ti.drv.mcasp.ae674 : mcasp_edma.oe674 (.switch:Mcasp_localGetIndicesSyncType)
                  c309ea24    00000018     ti.drv.i2c.ae674 : I2C_v0.oe674 (.switch:I2C_v0_hwiFxn$0)
                  c309ea3c    00000014     ti.drv.uart.ae674 : UART_v0.oe674 (.switch:UART_open_v0$0)
                  c309ea50    00000014     edma3_lld_drv_sample.ae674 : sample_cs.oe674 (.switch:edma3OsProtectEntry)
                  c309ea64    00000014                                : sample_cs.oe674 (.switch:edma3OsProtectExit)
                  c309ea78    00000010     edma3_lld_rm.ae674 : edma3resmgr.oe674 (.switch:EDMA3_RM_allocResource)
                  c309ea88    00000010                        : edma3resmgr.oe674 (.switch:EDMA3_RM_freeResource)

.cio       0    c309ea98    00000120     UNINITIALIZED
                  c309ea98    00000120     rts6740_elf.lib : trgmsg.obj (.cio)

MODULE SUMMARY

       Module                          code     ro data   rw data
       ------                          ----     -------   -------
    .\
       my_aic31.obj                    7008     1096      142    
       ADC_sampletask.obj              2432     10        492    
       my_aic3106_if.obj               1600     32        0      
       codec_if.obj                    800      0         19     
       mcasp_soc.obj                   768      0         0      
       I2C_soc.obj                     224      168       224    
       main_mcasp.obj                  288      64        4      
       mcasp_cfg.obj                   0        0         320    
       audio_evminit.obj               96       0         0      
    +--+-------------------------------+--------+---------+---------+
       Total:                          13216    1370      1201   
                                                                 
    C:\Users\pagrawal\workspace_v8\MCASP_test\Debug\configPkg\package\cfg\
       app_mcasp_pe674.oe674           5120     8392      215924 
    +--+-------------------------------+--------+---------+---------+
       Total:                          5120     8392      215924 
                                                                 
    C:\Users\pagrawal\workspace_v8\MCASP_test\src\sysbios\sysbios.ae674
       BIOS.obj                        31520    1352      0      
       c64p_Hwi_disp_always.obj        512      0         0      
       c64p_Exception_asm.obj          384      0         0      
       c62_TaskSupport_asm.obj         224      0         0      
       c64p_Hwi_asm_switch.obj         192      0         0      
       c64p_Hwi_asm.obj                160      0         0      
    +--+-------------------------------+--------+---------+---------+
       Total:                          32992    1352      0      
                                                                 
    C:\ti\bios_6_52_00_12\packages\ti\targets\rts6000\lib\boot.ae674
       autoinit.oe674                  288      0         0      
       boot.oe674                      160      0         0      
    +--+-------------------------------+--------+---------+---------+
       Total:                          448      0         0      
                                                                 
    C:\ti\bios_6_52_00_12\packages\ti\targets\rts6000\lib\ti.targets.rts6000.ae674
       System.oe674                    3232     24        0      
       LoggerBuf.oe674                 2592     0         0      
       Text.oe674                      1824     64        0      
       Error.oe674                     1152     88        0      
       Startup.oe674                   896      44        0      
       Core-mem.oe674                  896      0         0      
       SysMin.oe674                    704      0         0      
       Memory.oe674                    448      0         0      
       Core-smem.oe674                 416      0         0      
       Assert.oe674                    192      4         0      
       Core-params.oe674               160      0         0      
       Core-label.oe674                128      0         0      
       Gate.oe674                      64       0         0      
       Registry.oe674                  64       0         0      
    +--+-------------------------------+--------+---------+---------+
       Total:                          12768    224       0      
                                                                 
    C:\ti\ccsv8\tools\compiler\ti-cgt-c6000_8.2.3\lib\rts6740_elf.lib
       fputs.obj                       992      0         0      
       defs.obj                        0        0         804    
       imath64.obj                     704      0         0      
       setvbuf.obj                     544      0         0      
       fflush.obj                      512      0         0      
       trgmsg.obj                      224      0         288    
       getdevice.obj                   448      0         0      
       hostrename.obj                  416      0         0      
       write.obj                       96       0         280    
       fclose.obj                      320      0         0      
       copy_decompress_rle.obj         288      0         0      
       fseek.obj                       288      0         0      
       exit.obj                        256      0         12     
       _io_perm.obj                    256      0         0      
       hostopen.obj                    224      0         8      
       close.obj                       224      0         0      
       divi.obj                        224      0         0      
       hostlseek.obj                   224      0         0      
       hostwrite.obj                   224      0         0      
       llshift.obj                     224      0         0      
       memset.obj                      224      0         0      
       divu.obj                        192      0         0      
       hostread.obj                    192      0         0      
       hostunlink.obj                  192      0         0      
       tls.obj                         192      0         0      
       fopen.obj                       160      0         0      
       hostclose.obj                   160      0         0      
       memcpy64.obj                    160      0         0      
       remu.obj                        160      0         0      
       unlink.obj                      128      0         0      
       _lock.obj                       96       0         8      
       lseek.obj                       96       0         0      
       args_main.obj                   64       0         0      
       assert.obj                      64       0         0      
       strasg.obj                      64       0         0      
       copy_decompress_none.obj        32       0         0      
    +--+-------------------------------+--------+---------+---------+
       Total:                          8864     0         1400   
                                                                 
    C:\ti\edma3_lld_2_12_05_30C\packages\ti\sdo\edma3\drv\lib\674\release\edma3_lld_drv.ae674
       edma3_drv_init.oe674            2112     132       57146  
       edma3_drv_basic.oe674           6208     176       0      
       edma3_drv_adv.oe674             1888     48        0      
    +--+-------------------------------+--------+---------+---------+
       Total:                          10208    356       57146  
                                                                 
    C:\ti\edma3_lld_2_12_05_30C\packages\ti\sdo\edma3\drv\sample\lib\omapl138-evm\674\release\edma3_lld_drv_sample.ae674
       sample_omapl138_cfg.oe674       64       8         4376   
       sample_cs.oe674                 576      40        0      
       sample_omapl138_int_reg.oe674   480      0         40     
       sample_init.oe674               416      0         8      
    +--+-------------------------------+--------+---------+---------+
       Total:                          1536     48        4424   
                                                                 
    C:\ti\edma3_lld_2_12_05_30C\packages\ti\sdo\edma3\rm\lib\omapl138-evm\674\release\edma3_lld_rm.ae674
       edma3resmgr.oe674               13248    1164      31346  
       edma3_rm_gbl_data.oe674         0        4         22256  
       edma3_omapl138_cfg.oe674        0        0         7000   
    +--+-------------------------------+--------+---------+---------+
       Total:                          13248    1168      60602  
                                                                 
    C:\ti\pdk_omapl138_1_0_4\packages\ti\board\lib\lcdkOMAPL138\c674\release\ti.board.ae674
       lcdkOMAPL138_clock.oe674        1440     0         0      
       lcdkOMAPL138_pll.oe674          1440     0         0      
       lcdkOMAPL138_pinmux.oe674       1408     0         0      
       lcdkOMAPL138_ddr.oe674          384      0         0      
       lcdkOMAPL138.oe674              352      0         0      
       lcdkOMAPL138_lld_init.oe674     32       0         0      
    +--+-------------------------------+--------+---------+---------+
       Total:                          5056     0         0      
                                                                 
    C:\ti\pdk_omapl138_1_0_4\packages\ti\csl\lib\omapl138\c674\release\ti.csl.ae674
       mcasp.oe674                     2304     0         0      
       uart.oe674                      1216     0         0      
       i2c.oe674                       672      0         0      
       csl_chip.oe674                  288      128       0      
    +--+-------------------------------+--------+---------+---------+
       Total:                          4480     128       0      
                                                                 
    C:\ti\pdk_omapl138_1_0_4\packages\ti\drv\i2c\lib\omapl138\c674\release\ti.drv.i2c.ae674
       I2C_v0.oe674                    6336     60        0      
       I2C_drv.oe674                   512      72        4      
    +--+-------------------------------+--------+---------+---------+
       Total:                          6848     132       4      
                                                                 
    C:\ti\pdk_omapl138_1_0_4\packages\ti\drv\mcasp\lib\omapl138\c674\release\ti.drv.mcasp.ae674
       mcasp_drv.oe674                 22912    260       1382   
       mcasp_edma.oe674                9344     200       0      
       mcasp_ioctl.oe674               224      20        0      
    +--+-------------------------------+--------+---------+---------+
       Total:                          32480    480       1382   
                                                                 
    C:\ti\pdk_omapl138_1_0_4\packages\ti\drv\uart\lib\omapl138\c674\release\ti.drv.uart.ae674
       UART_v0.oe674                   7296     96        0      
       UART_soc.oe674                  0        48        648    
       UART_drv.oe674                  256      64        4      
       UART_stdio.oe674                160      36        8      
    +--+-------------------------------+--------+---------+---------+
       Total:                          7712     244       660    
                                                                 
    C:\ti\pdk_omapl138_1_0_4\packages\ti\osal\lib\tirtos\omapl138\c674\release\ti.osal.ae674
       SemaphoreP_tirtos.oe674         832      32        2880   
       HwiP_tirtos.oe674               736      28        1280   
       RegisterIntr_tirtos.oe674       800      0         0      
       EventCombinerP_tirtos.oe674     608      0         0      
       Utils_tirtos.oe674              448      0         68     
       MuxIntcP_tirtos.oe674           160      0         0      
       Queue_tirtos.oe674              160      0         0      
       CacheP_tirtos.oe674             64       0         0      
    +--+-------------------------------+--------+---------+---------+
       Total:                          3808     60        4228   
                                                                 
       Stack:                          0        0         131072 
       Linker Generated:               0        5206      0      
    +--+-------------------------------+--------+---------+---------+
       Grand Total:                    158784   19160     478043 


LINKER GENERATED COPY TABLES

__TI_cinit_table @ c30a02d0 records: 6, size/record: 8, table size: 48
	.fardata.2: load addr=c309eea8, load size=000013c3 bytes, run addr=c307b740, run size=0001fce8 bytes, compression=rle
	.rodata: load addr=c30a026b, load size=0000001a bytes, run addr=c309ee90, run size=00000014 bytes, compression=rle
	.fardata.1: load addr=c30a0285, load size=00000016 bytes, run addr=c3034cf0, run size=00000010 bytes, compression=rle
	.neardata: load addr=c30a029b, load size=00000015 bytes, run addr=c309ee28, run size=00000068 bytes, compression=rle
	.far: load addr=c30a02b0, load size=0000000d bytes, run addr=c3000000, run size=00034cea bytes, compression=rle
	.bss: load addr=c30a02bd, load size=00000009 bytes, run addr=c309ee00, run size=00000028 bytes, compression=rle


LINKER GENERATED HANDLER TABLE

__TI_handler_table @ c30a02c8 records: 2, size/record: 4, table size: 8
	index: 0, handler: __TI_decompress_rle24
	index: 1, handler: __TI_decompress_none


GLOBAL SYMBOLS: SORTED ALPHABETICALLY BY Name 

address   name                                                                
-------   ----                                                                
c3040184  AIC31ADCDeInit                                                      
c3040064  AIC31ADCInit                                                        
c304022c  AIC31DACDeInit                                                      
c30400c0  AIC31DACInit                                                        
c303fce4  AIC31DataConfig                                                     
c303fcc0  AIC31Reset                                                          
c303fde0  AIC31SampleRateConfig                                               
c309b354  AIC31_con8000                                                       
c309e258  Aic31_PARAMS                                                        
c3034cd0  Aic31_deviceInstInfo                                                
c3034d00  Aic31_init                                                          
c303b71c  Audio_echo_Task                                                     
c3047fc0  Board_CorePLLConfig                                                 
c304f720  Board_DDR3Init                                                      
c3049320  Board_DDRPLLConfig                                                  
c3059f60  Board_PLLInit                                                       
c3052260  Board_configEmifPinMux                                              
c3050620  Board_init                                                          
c304ae80  Board_moduleClockEnable                                             
c3052c80  Board_moduleClockInit                                               
c304d480  Board_moduleClockSyncReset                                          
c30432e0  Board_pinmuxConfig                                                  
c3059f80  Board_uartStdioInit                                                 
c305ac40  C$$EXIT                                                             
c3058278  C$$IO$$                                                             
c3052380  CSL_chipReadReg                                                     
c3059fa0  CacheP_wb                                                           
c3059fc0  CacheP_wbInv                                                        
c3047608  CodecRegBitClr                                                      
c3047584  CodecRegBitSet                                                      
c3047538  CodecRegRead                                                        
c30474e8  CodecRegWrite                                                       
c3052d80  EDMA3_DRV_clearErrorBits                                            
c3049b00  EDMA3_DRV_create                                                    
c30482a0  EDMA3_DRV_disableTransfer                                           
c3049d80  EDMA3_DRV_enableTransfer                                            
c3047060  EDMA3_DRV_freeChannel                                               
c304f8a0  EDMA3_DRV_getPaRAM                                                  
c304c480  EDMA3_DRV_getPaRAMField                                             
c3053b80  EDMA3_DRV_getPaRAMPhyAddr                                           
c304dfc0  EDMA3_DRV_linkChannel                                               
c3048560  EDMA3_DRV_open                                                      
c3039ae0  EDMA3_DRV_requestChannel                                            
c3050e60  EDMA3_DRV_setPaRAM                                                  
c309eea0  EDMA3_MAX_RM_INSTANCES                                              
c3038ea0  EDMA3_RM_allocResource                                              
c3044c40  EDMA3_RM_create                                                     
c3043740  EDMA3_RM_freeResource                                               
c303f000  EDMA3_RM_open                                                       
c304fa20  EDMA3_RM_registerTccCb                                              
c304fba0  EDMA3_RM_unregisterTccCb                                            
c3052e80  EventCombinerP_GroupRegisterInt                                     
c3059fe0  EventCombinerP_disableEvent                                         
c305a000  EventCombinerP_dispatchPlug                                         
c305a020  EventCombinerP_enableEvent                                          
c30569a0  EventCombinerP_getHwi                                               
c3056a20  EventCombinerP_getIntNum                                            
c303b1e8  GblErrRcv                                                           
c303b1b8  GblErrXmt                                                           
c30558e0  HOSTclose                                                           
c3053c60  HOSTlseek                                                           
c3053d40  HOSTopen                                                            
c3054c20  HOSTread                                                            
c304e880  HOSTrename                                                          
c3054ce0  HOSTunlink                                                          
c3053e20  HOSTwrite                                                           
c305a040  HwiP_clearInterrupt                                                 
c304d660  HwiP_create                                                         
c3057aa0  HwiP_delete                                                         
c305a060  HwiP_disable                                                        
c305a080  HwiP_disableInterrupt                                               
c305a0a0  HwiP_enableInterrupt                                                
c305a0c0  HwiP_restore                                                        
c30473b0  I2CCodecIfInit                                                      
c305a0e0  I2CIntVectGet                                                       
c305a100  I2CMasterBusBusy                                                    
c305a120  I2CMasterControl                                                    
c305a140  I2CMasterDataGet                                                    
c305a160  I2CMasterDataPut                                                    
c305a180  I2CMasterDisable                                                    
c305a1a0  I2CMasterEnable                                                     
c305a1c0  I2CMasterErr                                                        
c3058ca0  I2CMasterInitExpClk                                                 
c305a1e0  I2CMasterIntClearEx                                                 
c305a200  I2CMasterIntDisableEx                                               
c305a220  I2CMasterIntEnableEx                                                
c305a240  I2CMasterIntStatusEx                                                
c305a260  I2CMasterSlaveAddrSet                                               
c305a280  I2CMasterStart                                                      
c305a2a0  I2CMasterStop                                                       
c305a2c0  I2CModeControl                                                      
c305a2e0  I2COwnAddressSet                                                    
c305a300  I2CSetDataCount                                                     
c305a320  I2CSlaveEnable                                                      
c3057b00  I2C_Params_init                                                     
c309ddc8  I2C_config                                                          
c309e5d0  I2C_defaultParams                                                   
c309e1bc  I2C_defaultTransaction                                              
c309ee70  I2C_handle_glob                                                     
c3055980  I2C_init                                                            
c3057b60  I2C_open                                                            
c309ee74  I2C_slaveAddr                                                       
c3053f00  I2C_socGetInitCfg                                                   
c3053f70  I2C_socSetInitCfg                                                   
c3058d20  I2C_transactionInit                                                 
c3057bc0  I2C_transfer                                                        
c309e58c  I2C_v0_FxnTable                                                     
c3034830  I2cObjects                                                          
c305a340  McASPDITLeftChanStatusSet                                           
c305a360  McASPDITLeftUserDataRamSet                                          
c305a380  McASPDITModeCtlWrite                                                
c305a3a0  McASPDITRightChanStatusSet                                          
c305a3c0  McASPDITRightUserDataRamSet                                         
c305a3e0  McASPDlbRegRead                                                     
c305a400  McASPDlbRegWrite                                                    
c305a420  McASPGlobalCtlGet                                                   
c305a440  McASPGlobalCtlReset                                                 
c305a460  McASPGlobalCtlSet                                                   
c305a480  McASPPinDirInputSet                                                 
c305a4a0  McASPPinDirOutputSet                                                
c305a4c0  McASPPinGPIOSet                                                     
c305a4e0  McASPReadFifoDisable                                                
c3058da0  McASPReadFifoEnable                                                 
c3056aa0  McASPRxClkCfg                                                       
c305a500  McASPRxClkCheckConfig                                               
c305a520  McASPRxClkCheckRegRead                                              
c305a540  McASPRxClkCheckRegWrite                                             
c305a560  McASPRxClkPolaritySet                                               
c305a580  McASPRxFmtMaskSet                                                   
c305a5a0  McASPRxFmtSet                                                       
c305a5c0  McASPRxFrameSyncCfg                                                 
c305a5e0  McASPRxGlobalCtlGet                                                 
c305a600  McASPRxGlobalCtlSet                                                 
c3058de0  McASPRxHFClkPolaritySet                                             
c305a620  McASPRxIntDisable                                                   
c305a640  McASPRxIntEnable                                                    
c305a660  McASPRxIntrStatusGet                                                
c305a680  McASPRxReset                                                        
c305a6a0  McASPRxStatusGet                                                    
c305a6c0  McASPRxStatusSet                                                    
c305a6e0  McASPRxTimeSlotSet                                                  
c3058e20  McASPSerializerRxSet                                                
c305a700  McASPSerializerSet                                                  
c3058e60  McASPSerializerTxSet                                                
c3056b20  McASPTxClkCfg                                                       
c305a720  McASPTxClkCheckConfig                                               
c305a740  McASPTxClkCheckRegRead                                              
c305a760  McASPTxClkCheckRegWrite                                             
c305a780  McASPTxClkPolaritySet                                               
c305a7a0  McASPTxFmtMaskSet                                                   
c305a7c0  McASPTxFmtSet                                                       
c305a7e0  McASPTxFrameSyncCfg                                                 
c305a800  McASPTxGlobalCtlGet                                                 
c305a820  McASPTxGlobalCtlSet                                                 
c3058ea0  McASPTxHFClkPolaritySet                                             
c305a840  McASPTxIntDisable                                                   
c305a860  McASPTxIntEnable                                                    
c305a880  McASPTxIntrStatusGet                                                
c305a8a0  McASPTxReset                                                        
c305a8c0  McASPTxRxClkSyncDisable                                             
c305a8e0  McASPTxRxClkSyncEnable                                              
c305a900  McASPTxRxDMAEvtCntrlWrite                                           
c305a920  McASPTxRxFrameSyncRead                                              
c305a940  McASPTxStatusGet                                                    
c305a960  McASPTxStatusSet                                                    
c305a980  McASPTxTimeSlotSet                                                  
c305a9a0  McASPWriteFifoDisable                                               
c3058ee0  McASPWriteFifoEnable                                                
c3047cc0  McaspDevice_init                                                    
c3033d40  Mcasp_Instances                                                     
c309dc64  Mcasp_PARAMS                                                        
c3034ae8  Mcasp_deviceInstInfo                                                
c3053fe0  Mcasp_localAbortRequests                                            
c30414a0  Mcasp_localAbortReset                                               
c304e180  Mcasp_localCancelAndAbortAllIo                                      
c304ea20  Mcasp_localCollectRcvErrorStats                                     
c304ebc0  Mcasp_localCollectXmtErrorStats                                     
c30540c0  Mcasp_localCompleteCurrentIo                                        
c30469e0  Mcasp_localConfigRcvSection                                         
c3045820  Mcasp_localConfigXmtSection                                         
c303bac0  Mcasp_localEdmaCallback                                             
c3037da0  Mcasp_localEdmaChanPaRAMsetup                                       
c304fd20  Mcasp_localEdmaProcessPkt                                           
c3042480  Mcasp_localGetIndicesSyncType                                       
c3057c80  Mcasp_localGetNextIndex                                             
c3050fa0  Mcasp_localIsrSwiFxn                                                
c30495c0  Mcasp_localLoadPktToEdma                                            
c3057ce0  Mcasp_localResetRcv                                                 
c3057d40  Mcasp_localResetXmt                                                 
c304ed60  Mcasp_localSetupEdmaDuringOpen                                      
c3046680  Mcasp_localSetupHwInfo                                              
c3044400  Mcasp_localUpdtDtPktToLnkPrms                                       
c30348c8  Mcasp_loopDstBuf                                                    
c3034950  Mcasp_loopSrcBuf                                                    
c309b37c  Mcasp_module                                                        
c30349d8  Mcasp_muteBuf                                                       
c3057da0  Mcasp_socGetInitCfg                                                 
c3057e00  Mcasp_socSetInitCfg                                                 
c305a9c0  MuxIntcP_clearInEvent                                               
c3058f20  MuxIntcP_create                                                     
c305a9e0  MuxIntcP_disableOutEvent                                            
c305aa00  MuxIntcP_enableOutEvent                                             
c3057e60  Osal_ClearInterrupt                                                 
c3055a20  Osal_DeleteInterrupt                                                
c3058f60  Osal_DisableInterrupt                                               
c3058fa0  Osal_EnableInterrupt                                                
c305aa20  Osal_Queue_construct                                                
c305aa40  Osal_Queue_empty                                                    
c305aa60  Osal_Queue_get                                                      
c305aa80  Osal_Queue_handle                                                   
c305aaa0  Osal_Queue_put                                                      
c3050780  Osal_RegisterInterrupt                                              
c3058fe0  Osal_RegisterInterrupt_initParams                                   
c3054da0  Osal_delay                                                          
c3057ec0  Osal_getHwAttrs                                                     
c3057f20  Osal_getThreadType                                                  
c309ee30  RxFlag                                                              
c3059020  SemaphoreP_Params_init                                              
c304c680  SemaphoreP_create                                                   
c3057f80  SemaphoreP_delete                                                   
c3057fe0  SemaphoreP_pend                                                     
c3059060  SemaphoreP_post                                                     
c3059060  SemaphoreP_postFromClock                                            
c3059060  SemaphoreP_postFromISR                                              
c309ee34  TxFlag                                                              
c309e100  UART_FxnTable_v0                                                    
c305aac0  UART_Params_init                                                    
c30590a0  UART_breakCtl_v0                                                    
c30590e0  UART_charGetNonBlocking_v0                                          
c3056ba0  UART_charPut_v0                                                     
c309e130  UART_config                                                         
c309e048  UART_defaultParams                                                  
c305ab00  UART_divisorLatchDisable_v0                                         
c3058040  UART_divisorLatchWrite_v0                                           
c3059120  UART_divisorValCompute_v0                                           
c305ab20  UART_fIFOCharPut_v0                                                 
c3059160  UART_fIFOConfig_v0                                                  
c30591a0  UART_fIFORegisterWrite_v0                                           
c305ab40  UART_fifoEmpty_v0                                                   
c30580a0  UART_fifoWait_v0                                                    
c3055ac0  UART_init                                                           
c30591e0  UART_intDisable_v0                                                  
c3059220  UART_intEnable_v0                                                   
c3059260  UART_intIdentityGet_v0                                              
c3058100  UART_lineCharacConfig_v0                                            
c30592a0  UART_loopbackModeControl_v0                                         
c30592e0  UART_open                                                           
c305ab80  UART_operatingModeSelect_v0                                         
c305aba0  UART_pwremuConfig_v0                                                
c3059320  UART_readLineStatus_v0                                              
c3055b60  UART_stdioInit                                                      
c30344a0  UartObjects                                                         
c3059360  _DebugP_assert                                                      
c3000000  __ASM__                                                             
c309ea98  __CIOBUF_                                                           
c3000068  __ISA__                                                             
c3000080  __PLAT__                                                            
c30000a8  __TARG__                                                            
c30a02d0  __TI_CINIT_Base                                                     
c30a0300  __TI_CINIT_Limit                                                    
c30a02c8  __TI_Handler_Table_Base                                             
c30a02d0  __TI_Handler_Table_Limit                                            
UNDEFED   __TI_INITARRAY_Base                                                 
UNDEFED   __TI_INITARRAY_Limit                                                
c307b740  __TI_STACK_END                                                      
00020000  __TI_STACK_SIZE                                                     
c309ee00  __TI_STATIC_BASE                                                    
UNDEFED   __TI_TLS_INIT_Base                                                  
UNDEFED   __TI_TLS_INIT_Limit                                                 
c3055d40  __TI_cleanup                                                        
c309b364  __TI_cleanup_ptr                                                    
c30510e0  __TI_closefile                                                      
c305ac60  __TI_decompress_none                                                
c305ac80  __TI_decompress_rle24                                               
c3054fe0  __TI_doflush                                                        
c309b368  __TI_dtors_ptr                                                      
c309b36c  __TI_enable_exit_profile_output                                     
c309b23c  __TI_ft_end                                                         
ffffffff  __TI_pprof_out_hndl                                                 
ffffffff  __TI_prof_data_size                                                 
ffffffff  __TI_prof_data_start                                                
c3056c20  __TI_readmsg                                                        
c3055460  __TI_tls_init                                                       
c3034638  __TI_tmpnams                                                        
c3058220  __TI_writemsg                                                       
c3053280  __TI_wrt_ok                                                         
c30000d0  __TRDR__                                                            
ffffffff  __binit__                                                           
c30593a0  __c6xabi_abort_msg                                                  
c3054440  __c6xabi_divi                                                       
c30550a0  __c6xabi_divu                                                       
c304a500  __c6xabi_divull                                                     
c3056ca0  __c6xabi_llshl                                                      
c3058280  __c6xabi_llshru                                                     
c3055de0  __c6xabi_remu                                                       
c30593e0  __c6xabi_strasgi_64plus                                             
ffffffff  __c_args__                                                          
c3054440  __divi                                                              
c30550a0  __divu                                                              
c3055de0  __remu                                                              
c30593e0  __strasgi_64plus                                                    
c3059420  _args_main                                                          
00000000  _argsize                                                            
c30524a0  _auto_init_elf                                                      
c3055e80  _c_int00                                                            
c309acb0  _device                                                             
c309a6b8  _ftable                                                             
c309afb4  _lock                                                               
c305abc0  _nop                                                                
c305abe0  _register_lock                                                      
c305ac00  _register_unlock                                                    
c305b740  _stack                                                              
c309aa78  _stream                                                             
c30582e0  _subcull                                                            
c309b214  _unlock                                                             
c305ac40  abort                                                               
c3034d8c  aic31MdBindDev                                                      
c303534c  aic31MdControlChan                                                  
c3035098  aic31MdCreateChan                                                   
c303572c  aic31MdDeleteChan                                                   
c3035700  aic31MdSubmitChan                                                   
c3034ff4  aic31MdUnBindDev                                                    
ffffffff  binit                                                               
c309b388  ccErrorInt                                                          
c309afb8  ccXferCompInt                                                       
c3054520  close                                                               
c3058420  configMcASP_SocHwInfo                                               
c3058400  configureAudio                                                      
c309ee68  dataIdx                                                             
c3097528  defInstInitConfig                                                   
c305aca0  determineProcId                                                     
c305acc0  disableErrorInterrupt                                               
c305ace0  disableXferCompInterrupt                                            
c307c5b8  drvInstance                                                         
c307b740  drvObj                                                              
c309ee00  dsp_num                                                             
c3034bd4  eb                                                                  
c3080d98  edma3DrvChBoundRes                                                  
c30966f0  edma3GblCfgParams                                                   
c30525c0  edma3MemCpy                                                         
c3055160  edma3MemZero                                                        
c309ae2c  edma3NumPaRAMSets                                                   
c3055220  edma3OsProtectEntry                                                 
c3056da0  edma3OsProtectExit                                                  
c3058460  edma3OsSemCreate                                                    
c30594a0  edma3OsSemGive                                                      
c30584c0  edma3OsSemTake                                                      
c3056e20  edma3ParamCpy                                                       
c3034bf8  edma3_dma_ch_max_val                                                
c3034c10  edma3_link_ch_max_val                                               
c3034c28  edma3_link_ch_min_val                                               
c3034c40  edma3_log_ch_max_val                                                
c3034c58  edma3_qdma_ch_max_val                                               
c3034c70  edma3_qdma_ch_min_val                                               
c304ef00  edma3init                                                           
c305ad00  enableErrorInterrupt                                                
c305ad20  enableXferCompInterrupt                                             
c3034c98  errCbStatusRcv                                                      
c3034ca0  errCbStatusXmt                                                      
c3054600  exit                                                                
c3051220  fflush                                                              
c3056ea0  finddevice                                                          
c3045440  fputs                                                               
c30594e0  free                                                                
c30526e0  fseek                                                               
c309ee60  gOsalHwiAllocCnt                                                    
c309ee64  gOsalHwiPeak                                                        
c309ee50  gOsalSemAllocCnt                                                    
c309ee54  gOsalSemPeak                                                        
c309ee58  gOsalTimerAllocCnt                                                  
c309ee5c  gOsalTimerPeak                                                      
c309b148  gOsal_HwAttrs                                                       
c309ee40  gblErrFlagRcv                                                       
c309ee3c  gblErrFlagXmt                                                       
c3051360  getdevice                                                           
c309ee48  grxFrameIndexCount                                                  
c309ee44  gtxFrameIndexCount                                                  
c309ee04  hAicChannel                                                         
c309ee08  hAicDev                                                             
c309ee0c  hEdma                                                               
c309ee10  hMcaspDev                                                           
c309ee14  hMcaspRxChan                                                        
c309ee18  hMcaspTxChan                                                        
c309b390  hwIntCcErr                                                          
c309aff8  hwIntTcErr                                                          
c309b398  hwIntXferComp                                                       
c309af28  i2cInitCfg                                                          
c309ee80  inCount                                                             
c3034ce0  inUse                                                               
c305ad40  isGblConfigRequired                                                 
c3034c88  isrInstanceObject                                                   
c305ad60  lisrEdma3CCErrHandler0                                              
c305ad80  lisrEdma3ComplHandler0                                              
c305ada0  lisrEdma3TC0ErrHandler0                                             
c305adc0  lisrEdma3TC1ErrHandler0                                             
c305ade0  lisrEdma3TC2ErrHandler0                                             
c305ae00  lisrEdma3TC3ErrHandler0                                             
c305ae20  lisrEdma3TC4ErrHandler0                                             
c305ae40  lisrEdma3TC5ErrHandler0                                             
c305ae60  lisrEdma3TC6ErrHandler0                                             
c305ae80  lisrEdma3TC7ErrHandler0                                             
c3058520  lseek                                                               
c3052800  main                                                                
c3058a60  malloc                                                              
c309ee38  mcaspApiTest                                                        
c303b214  mcaspAppCallback                                                    
c3040940  mcaspBindDev                                                        
c30514a0  mcaspBitRemoveGblRCtl                                               
c30508e0  mcaspBitRemoveGblXCtl                                               
c304cc80  mcaspBitSetGblRCtl                                                  
c304ce80  mcaspBitSetGblXCtl                                                  
c3036860  mcaspCreateChan                                                     
c3045bc0  mcaspDeleteChan                                                     
c305aea0  mcaspIsr                                                            
c3041f60  mcaspIsrInput                                                       
c3041a00  mcaspIsrOutput                                                      
c3034778  mcaspParams                                                         
c309b1a0  mcaspRcvSetup                                                       
c3046300  mcaspRegisterInt                                                    
c304f0a0  mcaspSubmitChan                                                     
c3048ae0  mcaspSubmitReq                                                      
c3050020  mcaspUnRegisterInt                                                  
c3053380  mcaspValidateBufferConfig                                           
c30515e0  mcaspWriteChanStatRam                                               
c3051720  mcaspWriteUserDataRam                                               
c309b1c8  mcaspXmtSetup                                                       
c309a898  mcasp_chanparam                                                     
c3055fc0  memcpy                                                              
c30546e0  memset                                                              
c309ee90  myHeap                                                              
c309ee9c  numDsps                                                             
c309ee98  numEdma3Instances                                                   
c309b3a0  numEdma3Tc                                                          
c309ee84  outCount                                                            
c3034bb0  params                                                              
c3034ca8  parmbuf                                                             
c309b240  ptrEdma3TcIsrHandler                                                
c3034cfc  ptrInitCfgArray                                                     
c3034cf8  ptrRMIArray                                                         
c309ee1c  region_id                                                           
c3050a40  registerEdma3Interrupts                                             
c30575a0  remove                                                              
c3034cf0  resMgrInstance                                                      
c3092a50  resMgrInstanceArray                                                 
c3089678  resMgrObj                                                           
c3034b30  rxFrame                                                             
c309ee28  rxFrameIndex                                                        
c3034cb0  rxbuf                                                               
c3099808  sampleEdma3GblCfgParams                                             
c3098d88  sampleInstInitConfig                                                
c309b3a8  semHandle                                                           
c309ee20  semR                                                                
c309ee24  semT                                                                
c304be20  setvbuf                                                             
c3034cd8  slaveData                                                           
c309ee94  task0                                                               
c309b038  tcErrorInt                                                          
c309b1f0  ti_sysbios_BIOS_Module__state__V                                    
c30598a0  ti_sysbios_BIOS_RtsGateProxy_Handle__label__S                       
c305aec0  ti_sysbios_BIOS_RtsGateProxy_enter__E                               
c305aee0  ti_sysbios_BIOS_RtsGateProxy_leave__E                               
c305b200  ti_sysbios_BIOS_RtsGateProxy_query__E                               
c3056f20  ti_sysbios_BIOS_atExitFunc__I                                       
c3058580  ti_sysbios_BIOS_errorRaiseHook__I                                   
c3059520  ti_sysbios_BIOS_exitFunc__I                                         
c305af00  ti_sysbios_BIOS_getThreadType__E                                    
c305af20  ti_sysbios_BIOS_linkedWithIncorrectBootLibrary__E                   
c305af40  ti_sysbios_BIOS_nullFunc__I                                         
c3056fa0  ti_sysbios_BIOS_registerRTSLock__I                                  
c30585e0  ti_sysbios_BIOS_removeRTSLock__I                                    
c3059560  ti_sysbios_BIOS_rtsLock__I                                          
c30595a0  ti_sysbios_BIOS_rtsUnlock__I                                        
c305af60  ti_sysbios_BIOS_setThreadType__E                                    
c3058640  ti_sysbios_BIOS_startFunc__I                                        
c305af80  ti_sysbios_BIOS_start__E                                            
c305afa0  ti_sysbios_family_c62_TaskSupport_Module__startupDone__S            
c3059460  ti_sysbios_family_c62_TaskSupport_buildTaskStack                    
c305ac20  ti_sysbios_family_c62_TaskSupport_glue                              
c30595e0  ti_sysbios_family_c62_TaskSupport_start__E                          
c3056d20  ti_sysbios_family_c62_TaskSupport_swap__E                           
c309e4e4  ti_sysbios_family_c64p_Cache_EMIFA_BASE__C                          
c309e604  ti_sysbios_family_c64p_Cache_EMIFA_CFG__C                           
c309e620  ti_sysbios_family_c64p_Cache_EMIFA_LENGTH__C                        
c309e624  ti_sysbios_family_c64p_Cache_EMIFB_BASE__C                          
c309e628  ti_sysbios_family_c64p_Cache_EMIFB_CFG__C                           
c309e62c  ti_sysbios_family_c64p_Cache_EMIFB_LENGTH__C                        
c309e630  ti_sysbios_family_c64p_Cache_EMIFC_BASE__C                          
c309e634  ti_sysbios_family_c64p_Cache_EMIFC_CFG__C                           
c309e638  ti_sysbios_family_c64p_Cache_EMIFC_LENGTH__C                        
c309e63c  ti_sysbios_family_c64p_Cache_E_invalidL1CacheSize__C                
c309e640  ti_sysbios_family_c64p_Cache_E_invalidL2CacheSize__C                
c309e644  ti_sysbios_family_c64p_Cache_MAR0_31__C                             
c309e648  ti_sysbios_family_c64p_Cache_MAR128_159__C                          
c309e64c  ti_sysbios_family_c64p_Cache_MAR160_191__C                          
c309e650  ti_sysbios_family_c64p_Cache_MAR192_223__C                          
c309e654  ti_sysbios_family_c64p_Cache_MAR224_255__C                          
c309e658  ti_sysbios_family_c64p_Cache_MAR32_63__C                            
c309e65c  ti_sysbios_family_c64p_Cache_MAR64_95__C                            
c309e660  ti_sysbios_family_c64p_Cache_MAR96_127__C                           
c309e5fa  ti_sysbios_family_c64p_Cache_Module__id__C                          
c309b384  ti_sysbios_family_c64p_Cache_Module__state__V                       
c304a000  ti_sysbios_family_c64p_Cache_Module_startup__E                      
c304a760  ti_sysbios_family_c64p_Cache_block__I                               
c3051860  ti_sysbios_family_c64p_Cache_getL1DInitSize__I                      
c30519a0  ti_sysbios_family_c64p_Cache_getL1PInitSize__I                      
c304f240  ti_sysbios_family_c64p_Cache_getL2InitSize__I                       
c3057020  ti_sysbios_family_c64p_Cache_invL1pAll__E                           
c305afc0  ti_sysbios_family_c64p_Cache_inv__E                                 
00008000  ti_sysbios_family_c64p_Cache_l1dSize                                
00008000  ti_sysbios_family_c64p_Cache_l1pSize                                
00000000  ti_sysbios_family_c64p_Cache_l2Size                                 
c30586a0  ti_sysbios_family_c64p_Cache_setMar__E                              
c305afe0  ti_sysbios_family_c64p_Cache_wbInv__E                               
c305b000  ti_sysbios_family_c64p_Cache_wb__E                                  
c309e664  ti_sysbios_family_c64p_EventCombiner_A_invalidEventId__C            
c309e5e0  ti_sysbios_family_c64p_EventCombiner_EVTMASK__C                     
c309e668  ti_sysbios_family_c64p_EventCombiner_E_unpluggedEvent__C            
c309e66c  ti_sysbios_family_c64p_EventCombiner_Module__diagsEnabled__C        
c309e670  ti_sysbios_family_c64p_EventCombiner_Module__diagsIncluded__C       
c309e674  ti_sysbios_family_c64p_EventCombiner_Module__diagsMask__C           
c309e8bc  ti_sysbios_family_c64p_EventCombiner_Module__id__C                  
c309a2b8  ti_sysbios_family_c64p_EventCombiner_Module__state__V               
c3059620  ti_sysbios_family_c64p_EventCombiner_Module_startup__E              
c3059660  ti_sysbios_family_c64p_EventCombiner_disableEvent__E                
c304d080  ti_sysbios_family_c64p_EventCombiner_dispatchPlug__E                
c304b0c0  ti_sysbios_family_c64p_EventCombiner_dispatch__E                    
c30596a0  ti_sysbios_family_c64p_EventCombiner_enableEvent__E                 
c3058700  ti_sysbios_family_c64p_EventCombiner_unused__E                      
c309e678  ti_sysbios_family_c64p_Exception_E_exceptionMax__C                  
c309e8be  ti_sysbios_family_c64p_Exception_Module__id__C                      
c309b0b8  ti_sysbios_family_c64p_Exception_Module__state__V                   
c3056060  ti_sysbios_family_c64p_Exception_Module_startup__E                  
c30501a0  ti_sysbios_family_c64p_Exception_dispatch__E                        
c309e67c  ti_sysbios_family_c64p_Exception_exceptionHook__C                   
c309e680  ti_sysbios_family_c64p_Exception_externalHook__C                    
c303d400  ti_sysbios_family_c64p_Exception_handler__I                         
c304b300  ti_sysbios_family_c64p_Exception_internalHandler__I                 
c309e684  ti_sysbios_family_c64p_Exception_internalHook__C                    
c309e688  ti_sysbios_family_c64p_Exception_nmiHook__C                         
c309e8c0  ti_sysbios_family_c64p_Exception_useInternalBuffer__C               
c309ec00  ti_sysbios_family_c64p_Hwi0                                         
c309e68c  ti_sysbios_family_c64p_Hwi_E_alreadyDefined__C                      
c309e690  ti_sysbios_family_c64p_Hwi_E_handleNotFound__C                      
c309e694  ti_sysbios_family_c64p_Hwi_E_invalidIntNum__C                       
c3053480  ti_sysbios_family_c64p_Hwi_Instance_finalize__E                     
c3052920  ti_sysbios_family_c64p_Hwi_Instance_init__E                         
c309e698  ti_sysbios_family_c64p_Hwi_LD_end__C                                
c309e69c  ti_sysbios_family_c64p_Hwi_LM_begin__C                              
c309e6a0  ti_sysbios_family_c64p_Hwi_Module__diagsEnabled__C                  
c309e6a4  ti_sysbios_family_c64p_Hwi_Module__diagsIncluded__C                 
c309e6a8  ti_sysbios_family_c64p_Hwi_Module__diagsMask__C                     
c309e8c2  ti_sysbios_family_c64p_Hwi_Module__id__C                            
c309e8c4  ti_sysbios_family_c64p_Hwi_Module__loggerDefined__C                 
c309e6ac  ti_sysbios_family_c64p_Hwi_Module__loggerFxn1__C                    
c309e6b0  ti_sysbios_family_c64p_Hwi_Module__loggerFxn8__C                    
c309e6b4  ti_sysbios_family_c64p_Hwi_Module__loggerObj__C                     
c309b3b0  ti_sysbios_family_c64p_Hwi_Module__root__V                          
c305b020  ti_sysbios_family_c64p_Hwi_Module__startupDone__F                   
c305b020  ti_sysbios_family_c64p_Hwi_Module__startupDone__S                   
c309ada0  ti_sysbios_family_c64p_Hwi_Module__state__V                         
c3051ae0  ti_sysbios_family_c64p_Hwi_Module_startup__E                        
c309e3cc  ti_sysbios_family_c64p_Hwi_Object__DESC__C                          
c309e160  ti_sysbios_family_c64p_Hwi_Object__PARAMS__C                        
c309ad28  ti_sysbios_family_c64p_Hwi_Object__table__V                         
c305b040  ti_sysbios_family_c64p_Hwi_Params__init__S                          
c305b060  ti_sysbios_family_c64p_Hwi_clearInterrupt__E                        
c3056100  ti_sysbios_family_c64p_Hwi_construct                                
c30596e0  ti_sysbios_family_c64p_Hwi_destruct                                 
c3059720  ti_sysbios_family_c64p_Hwi_disableInterrupt__E                      
c304ca80  ti_sysbios_family_c64p_Hwi_dispatchAlways                           
c30561a0  ti_sysbios_family_c64p_Hwi_dispatchC__I                             
c304a9c0  ti_sysbios_family_c64p_Hwi_dispatchCore__I                          
c3059760  ti_sysbios_family_c64p_Hwi_enableInterrupt__E                       
c3056240  ti_sysbios_family_c64p_Hwi_eventMap__E                              
c30597a0  ti_sysbios_family_c64p_Hwi_getEventId__E                            
c305b080  ti_sysbios_family_c64p_Hwi_getFunc__E                               
c305b0a0  ti_sysbios_family_c64p_Hwi_getHandle__E                             
c30562e0  ti_sysbios_family_c64p_Hwi_getStackInfo__E                          
c309ec00  ti_sysbios_family_c64p_Hwi_int0                                     
c309ec20  ti_sysbios_family_c64p_Hwi_int1                                     
c309ed40  ti_sysbios_family_c64p_Hwi_int10                                    
c309ed60  ti_sysbios_family_c64p_Hwi_int11                                    
c309ed80  ti_sysbios_family_c64p_Hwi_int12                                    
c309eda0  ti_sysbios_family_c64p_Hwi_int13                                    
c309edc0  ti_sysbios_family_c64p_Hwi_int14                                    
c309ede0  ti_sysbios_family_c64p_Hwi_int15                                    
c309ec40  ti_sysbios_family_c64p_Hwi_int2                                     
c309ec60  ti_sysbios_family_c64p_Hwi_int3                                     
c309ec80  ti_sysbios_family_c64p_Hwi_int4                                     
c309eca0  ti_sysbios_family_c64p_Hwi_int5                                     
c309ecc0  ti_sysbios_family_c64p_Hwi_int6                                     
c309ece0  ti_sysbios_family_c64p_Hwi_int7                                     
c309ed00  ti_sysbios_family_c64p_Hwi_int8                                     
c309ed20  ti_sysbios_family_c64p_Hwi_int9                                     
c3055f20  ti_sysbios_family_c64p_Hwi_plug__E                                  
c304c040  ti_sysbios_family_c64p_Hwi_reconfig__E                              
c305b0c0  ti_sysbios_family_c64p_Hwi_startup__E                               
c3058340  ti_sysbios_family_c64p_Hwi_switchAndDispatch__I                     
c305b0e0  ti_sysbios_family_c64p_Hwi_switchFromBootStack__E                   
c305b100  ti_sysbios_family_c64p_Hwi_unPluggedInterrupt__I                    
c305b120  ti_sysbios_family_c64p_TimestampProvider_Module_startup__E          
c305b140  ti_sysbios_family_c64p_TimestampProvider_get64__E                   
c309b3b8  ti_sysbios_family_c64p_primus_TimerSupport_Module_State_0_suspSrc__A
c309b410  ti_sysbios_family_c64p_primus_TimerSupport_Module__state__V         
c30597e0  ti_sysbios_family_c64p_primus_TimerSupport_enable__E                
c30583a0  ti_sysbios_family_xxx_Hwi_switchAndRunFunc                          
c3059820  ti_sysbios_gates_GateHwi_Handle__label__S                           
c305b160  ti_sysbios_gates_GateHwi_Instance_init__E                           
c309e27c  ti_sysbios_gates_GateHwi_Module__FXNS__C                            
c309b3c0  ti_sysbios_gates_GateHwi_Module__root__V                            
c309e3ec  ti_sysbios_gates_GateHwi_Object__DESC__C                            
c309e51c  ti_sysbios_gates_GateHwi_Object__PARAMS__C                          
c30570a0  ti_sysbios_gates_GateHwi_Object__create__S                          
c3059860  ti_sysbios_gates_GateHwi_Object__delete__S                          
c309b418  ti_sysbios_gates_GateHwi_Object__table__V                           
c305b180  ti_sysbios_gates_GateHwi_enter__E                                   
c305b1a0  ti_sysbios_gates_GateHwi_leave__E                                   
c305b1c0  ti_sysbios_gates_GateHwi_query__E                                   
c309e6b8  ti_sysbios_gates_GateMutex_A_badContext__C                          
c30598a0  ti_sysbios_gates_GateMutex_Handle__label__S                         
c309e6bc  ti_sysbios_gates_GateMutex_Instance_State_sem__O                    
c305b1e0  ti_sysbios_gates_GateMutex_Instance_finalize__E                     
c30598e0  ti_sysbios_gates_GateMutex_Instance_init__E                         
c309e2a0  ti_sysbios_gates_GateMutex_Module__FXNS__C                          
c309e6c0  ti_sysbios_gates_GateMutex_Module__diagsEnabled__C                  
c309e6c4  ti_sysbios_gates_GateMutex_Module__diagsIncluded__C                 
c309e6c8  ti_sysbios_gates_GateMutex_Module__diagsMask__C                     
c309e8c6  ti_sysbios_gates_GateMutex_Module__id__C                            
c309b3c8  ti_sysbios_gates_GateMutex_Module__root__V                          
c309e40c  ti_sysbios_gates_GateMutex_Object__DESC__C                          
c309e534  ti_sysbios_gates_GateMutex_Object__PARAMS__C                        
c3057120  ti_sysbios_gates_GateMutex_Object__create__S                        
c3058760  ti_sysbios_gates_GateMutex_Object__delete__S                        
c309b078  ti_sysbios_gates_GateMutex_Object__table__V                         
c304d840  ti_sysbios_gates_GateMutex_enter__E                                 
c3059920  ti_sysbios_gates_GateMutex_leave__E                                 
c305b200  ti_sysbios_gates_GateMutex_query__E                                 
c305afc0  ti_sysbios_hal_Cache_CacheProxy_inv__E                              
c305afe0  ti_sysbios_hal_Cache_CacheProxy_wbInv__E                            
c305b000  ti_sysbios_hal_Cache_CacheProxy_wb__E                               
c305afc0  ti_sysbios_hal_Cache_inv__E                                         
c305afe0  ti_sysbios_hal_Cache_wbInv__E                                       
c305b000  ti_sysbios_hal_Cache_wb__E                                          
c309e6cc  ti_sysbios_hal_Hwi_E_stackOverflow__C                               
c305b020  ti_sysbios_hal_Hwi_HwiProxy_Module__startupDone__S                  
c305b040  ti_sysbios_hal_Hwi_HwiProxy_Params__init__S                         
c305b060  ti_sysbios_hal_Hwi_HwiProxy_clearInterrupt__E                       
c3059720  ti_sysbios_hal_Hwi_HwiProxy_disableInterrupt__E                     
c3059760  ti_sysbios_hal_Hwi_HwiProxy_enableInterrupt__E                      
c30562e0  ti_sysbios_hal_Hwi_HwiProxy_getStackInfo__E                         
c305b0c0  ti_sysbios_hal_Hwi_HwiProxy_startup__E                              
c305b0e0  ti_sysbios_hal_Hwi_HwiProxy_switchFromBootStack__E                  
c309e8c8  ti_sysbios_hal_Hwi_Module__id__C                                    
c305b220  ti_sysbios_hal_Hwi_Module_startup__E                                
c309b3d0  ti_sysbios_hal_Hwi_Object__table__V                                 
c30571a0  ti_sysbios_hal_Hwi_checkStack                                       
c305b060  ti_sysbios_hal_Hwi_clearInterrupt__E                                
c3059720  ti_sysbios_hal_Hwi_disableInterrupt__E                              
c3059760  ti_sysbios_hal_Hwi_enableInterrupt__E                               
c30562e0  ti_sysbios_hal_Hwi_getStackInfo__E                                  
c3057220  ti_sysbios_hal_Hwi_initStack                                        
c305b0c0  ti_sysbios_hal_Hwi_startup__E                                       
c305b0e0  ti_sysbios_hal_Hwi_switchFromBootStack__E                           
c309e6d0  ti_sysbios_heaps_HeapMem_A_align__C                                 
c309e6d4  ti_sysbios_heaps_HeapMem_A_heapSize__C                              
c309e6d8  ti_sysbios_heaps_HeapMem_A_invalidFree__C                           
c309e6dc  ti_sysbios_heaps_HeapMem_A_zeroBlock__C                             
c309e6e0  ti_sysbios_heaps_HeapMem_E_memory__C                                
c3059960  ti_sysbios_heaps_HeapMem_Handle__label__S                           
c3000000  ti_sysbios_heaps_HeapMem_Instance_State_0_buf__A                    
c3030d40  ti_sysbios_heaps_HeapMem_Instance_State_1_buf__A                    
c3048da0  ti_sysbios_heaps_HeapMem_Instance_init__E                           
c30598a0  ti_sysbios_heaps_HeapMem_Module_GateProxy_Handle__label__S          
c305b240  ti_sysbios_heaps_HeapMem_Module_GateProxy_enter__E                  
c305b260  ti_sysbios_heaps_HeapMem_Module_GateProxy_leave__E                  
c305b200  ti_sysbios_heaps_HeapMem_Module_GateProxy_query__E                  
c309e1e4  ti_sysbios_heaps_HeapMem_Module__FXNS__C                            
c309e6e4  ti_sysbios_heaps_HeapMem_Module__diagsEnabled__C                    
c309e6e8  ti_sysbios_heaps_HeapMem_Module__diagsIncluded__C                   
c309e6ec  ti_sysbios_heaps_HeapMem_Module__diagsMask__C                       
c309e6f0  ti_sysbios_heaps_HeapMem_Module__gateObj__C                         
c309e8ca  ti_sysbios_heaps_HeapMem_Module__id__C                              
c309b3d8  ti_sysbios_heaps_HeapMem_Module__root__V                            
c309e42c  ti_sysbios_heaps_HeapMem_Object__DESC__C                            
c309e2c4  ti_sysbios_heaps_HeapMem_Object__PARAMS__C                          
c309e6f4  ti_sysbios_heaps_HeapMem_Object__count__C                           
c30572a0  ti_sysbios_heaps_HeapMem_Object__create__S                          
c30599a0  ti_sysbios_heaps_HeapMem_Object__delete__S                          
c30599e0  ti_sysbios_heaps_HeapMem_Object__get__S                             
c309b0e8  ti_sysbios_heaps_HeapMem_Object__table__V                           
c3040300  ti_sysbios_heaps_HeapMem_allocUnprotected__E                        
c30547c0  ti_sysbios_heaps_HeapMem_alloc__E                                   
c3040f00  ti_sysbios_heaps_HeapMem_freeUnprotected__E                         
c30587c0  ti_sysbios_heaps_HeapMem_free__E                                    
c30552e0  ti_sysbios_heaps_HeapMem_getStats__E                                
c3056380  ti_sysbios_heaps_HeapMem_init__I                                    
c305b280  ti_sysbios_heaps_HeapMem_isBlocking__E                              
c309e6f8  ti_sysbios_heaps_HeapMem_reqAlign__C                                
c309b260  ti_sysbios_io_DEV_Module_State_0_table__A                           
c309e8cc  ti_sysbios_io_DEV_Module__id__C                                     
c309b414  ti_sysbios_io_DEV_Module__state__V                                  
c3058820  ti_sysbios_io_DEV_Module_startup__E                                 
c309e6fc  ti_sysbios_io_DEV_Object__count__C                                  
c305b2a0  ti_sysbios_io_DEV_Object__get__S                                    
c304e500  ti_sysbios_io_DEV_postInit__I                                       
c309e700  ti_sysbios_io_DEV_tableSize__C                                      
c309e704  ti_sysbios_knl_Clock_LM_begin__C                                    
c309e708  ti_sysbios_knl_Clock_LM_tick__C                                     
c309e70c  ti_sysbios_knl_Clock_LW_delayed__C                                  
c309e710  ti_sysbios_knl_Clock_Module_State_clockQ__O                         
c309e714  ti_sysbios_knl_Clock_Module__diagsEnabled__C                        
c309e718  ti_sysbios_knl_Clock_Module__diagsIncluded__C                       
c309e71c  ti_sysbios_knl_Clock_Module__diagsMask__C                           
c309e8ce  ti_sysbios_knl_Clock_Module__id__C                                  
c309e8d0  ti_sysbios_knl_Clock_Module__loggerDefined__C                       
c309e720  ti_sysbios_knl_Clock_Module__loggerFxn1__C                          
c309e724  ti_sysbios_knl_Clock_Module__loggerFxn2__C                          
c309e728  ti_sysbios_knl_Clock_Module__loggerObj__C                           
c309b174  ti_sysbios_knl_Clock_Module__state__V                               
c3058880  ti_sysbios_knl_Clock_Module_startup__E                              
c305b420  ti_sysbios_knl_Clock_TimerProxy_Module__startupDone__S              
c305b2c0  ti_sysbios_knl_Clock_TimerProxy_getMaxTicks__E                      
c3054a60  ti_sysbios_knl_Clock_TimerProxy_startup__E                          
c3057320  ti_sysbios_knl_Clock_doTick__I                                      
c30553a0  ti_sysbios_knl_Clock_logTick__E                                     
c3049860  ti_sysbios_knl_Clock_workFunc__E                                    
c309e730  ti_sysbios_knl_Idle_funcList__A                                     
c309e5fc  ti_sysbios_knl_Idle_funcList__C                                     
c305b2e0  ti_sysbios_knl_Idle_loop__E                                         
c30573a0  ti_sysbios_knl_Idle_run__E                                          
c305b300  ti_sysbios_knl_Queue_Instance_init__E                               
c309b3e0  ti_sysbios_knl_Queue_Module__root__V                                
c309e44c  ti_sysbios_knl_Queue_Object__DESC__C                                
c309e54c  ti_sysbios_knl_Queue_Object__PARAMS__C                              
c305b320  ti_sysbios_knl_Queue_Object__get__S                                 
c30588e0  ti_sysbios_knl_Queue_construct                                      
c305b340  ti_sysbios_knl_Queue_destruct                                       
c305b360  ti_sysbios_knl_Queue_empty__E                                       
c3059a20  ti_sysbios_knl_Queue_get__E                                         
c3059a60  ti_sysbios_knl_Queue_put__E                                         
c309e72c  ti_sysbios_knl_Semaphore_A_badContext__C                            
c309e734  ti_sysbios_knl_Semaphore_A_noEvents__C                              
c309e738  ti_sysbios_knl_Semaphore_A_overflow__C                              
c309e73c  ti_sysbios_knl_Semaphore_A_pendTaskDisabled__C                      
c309e740  ti_sysbios_knl_Semaphore_Instance_State_pendQ__O                    
c305b380  ti_sysbios_knl_Semaphore_Instance_finalize__E                       
c3051c20  ti_sysbios_knl_Semaphore_Instance_init__E                           
c309e744  ti_sysbios_knl_Semaphore_LM_pend__C                                 
c309e748  ti_sysbios_knl_Semaphore_LM_post__C                                 
c309e74c  ti_sysbios_knl_Semaphore_Module__diagsEnabled__C                    
c309e750  ti_sysbios_knl_Semaphore_Module__diagsIncluded__C                   
c309e754  ti_sysbios_knl_Semaphore_Module__diagsMask__C                       
c309e8d2  ti_sysbios_knl_Semaphore_Module__id__C                              
c309e8d4  ti_sysbios_knl_Semaphore_Module__loggerDefined__C                   
c309e758  ti_sysbios_knl_Semaphore_Module__loggerFxn2__C                      
c309e75c  ti_sysbios_knl_Semaphore_Module__loggerFxn4__C                      
c309e760  ti_sysbios_knl_Semaphore_Module__loggerObj__C                       
c309b3e8  ti_sysbios_knl_Semaphore_Module__root__V                            
c309e46c  ti_sysbios_knl_Semaphore_Object__DESC__C                            
c309e2e8  ti_sysbios_knl_Semaphore_Object__PARAMS__C                          
c305b3a0  ti_sysbios_knl_Semaphore_Params__init__S                            
c3058940  ti_sysbios_knl_Semaphore_construct                                  
c3057420  ti_sysbios_knl_Semaphore_create                                     
c3059aa0  ti_sysbios_knl_Semaphore_destruct                                   
c30574a0  ti_sysbios_knl_Semaphore_pendTimeout__I                             
c303cc40  ti_sysbios_knl_Semaphore_pend__E                                    
c304a280  ti_sysbios_knl_Semaphore_post__E                                    
c309e764  ti_sysbios_knl_Swi_LD_end__C                                        
c309e768  ti_sysbios_knl_Swi_LM_begin__C                                      
c309e76c  ti_sysbios_knl_Swi_LM_post__C                                       
c309abb0  ti_sysbios_knl_Swi_Module_State_0_readyQ__A                         
c309e770  ti_sysbios_knl_Swi_Module__diagsEnabled__C                          
c309e774  ti_sysbios_knl_Swi_Module__diagsIncluded__C                         
c309e778  ti_sysbios_knl_Swi_Module__diagsMask__C                             
c309e8d6  ti_sysbios_knl_Swi_Module__id__C                                    
c309e8d8  ti_sysbios_knl_Swi_Module__loggerDefined__C                         
c309e77c  ti_sysbios_knl_Swi_Module__loggerFxn1__C                            
c309e780  ti_sysbios_knl_Swi_Module__loggerFxn4__C                            
c309e784  ti_sysbios_knl_Swi_Module__loggerObj__C                             
c309b320  ti_sysbios_knl_Swi_Module__state__V                                 
c30589a0  ti_sysbios_knl_Swi_Module_startup__E                                
c309e788  ti_sysbios_knl_Swi_Object__count__C                                 
c3059ae0  ti_sysbios_knl_Swi_Object__get__S                                   
c309b118  ti_sysbios_knl_Swi_Object__table__V                                 
c305b3c0  ti_sysbios_knl_Swi_disable__E                                       
c3050ba0  ti_sysbios_knl_Swi_post__E                                          
c3053580  ti_sysbios_knl_Swi_restoreHwi__E                                    
c30548a0  ti_sysbios_knl_Swi_runLoop__I                                       
c304c260  ti_sysbios_knl_Swi_run__I                                           
c3053680  ti_sysbios_knl_Swi_schedule__I                                      
c3054980  ti_sysbios_knl_Swi_startup__E                                       
c309e78c  ti_sysbios_knl_Task_A_badTimeout__C                                 
c309e790  ti_sysbios_knl_Task_A_sleepTaskDisabled__C                          
c3032d40  ti_sysbios_knl_Task_Instance_State_0_stack__A                       
c3033540  ti_sysbios_knl_Task_Instance_State_1_stack__A                       
c309e794  ti_sysbios_knl_Task_LD_block__C                                     
c309e798  ti_sysbios_knl_Task_LD_exit__C                                      
c309e79c  ti_sysbios_knl_Task_LD_ready__C                                     
c309e7a0  ti_sysbios_knl_Task_LM_sleep__C                                     
c309e7a4  ti_sysbios_knl_Task_LM_switch__C                                    
c309b420  ti_sysbios_knl_Task_Module_State_0_idleTask__A                      
c309ac30  ti_sysbios_knl_Task_Module_State_0_readyQ__A                        
c309e7a8  ti_sysbios_knl_Task_Module_State_inactiveQ__O                       
c309e7ac  ti_sysbios_knl_Task_Module__diagsEnabled__C                         
c309e7b0  ti_sysbios_knl_Task_Module__diagsIncluded__C                        
c309e7b4  ti_sysbios_knl_Task_Module__diagsMask__C                            
c309e8da  ti_sysbios_knl_Task_Module__id__C                                   
c309e8dc  ti_sysbios_knl_Task_Module__loggerDefined__C                        
c309e7b8  ti_sysbios_knl_Task_Module__loggerFxn2__C                           
c309e7bc  ti_sysbios_knl_Task_Module__loggerFxn4__C                           
c309e7c0  ti_sysbios_knl_Task_Module__loggerObj__C                            
c309af70  ti_sysbios_knl_Task_Module__state__V                                
c3045f60  ti_sysbios_knl_Task_Module_startup__E                               
c309e7c4  ti_sysbios_knl_Task_Object__count__C                                
c3059b20  ti_sysbios_knl_Task_Object__get__S                                  
c309ab18  ti_sysbios_knl_Task_Object__table__V                                
c305afa0  ti_sysbios_knl_Task_SupportProxy_Module__startupDone__S             
c30595e0  ti_sysbios_knl_Task_SupportProxy_start__E                           
c3056d20  ti_sysbios_knl_Task_SupportProxy_swap__E                            
c309e7c8  ti_sysbios_knl_Task_allBlockedFunc__C                               
c3056420  ti_sysbios_knl_Task_allBlockedFunction__I                           
c3051d60  ti_sysbios_knl_Task_blockI__E                                       
c305b3e0  ti_sysbios_knl_Task_disable__E                                      
c3057520  ti_sysbios_knl_Task_enable__E                                       
c3058a00  ti_sysbios_knl_Task_enter__I                                        
c304da20  ti_sysbios_knl_Task_exit__E                                         
c309e7cc  ti_sysbios_knl_Task_numConstructedTasks__C                          
c3050320  ti_sysbios_knl_Task_schedule__I                                     
c3059b60  ti_sysbios_knl_Task_sleepTimeout__I                                 
c3042e20  ti_sysbios_knl_Task_sleep__E                                        
c30504a0  ti_sysbios_knl_Task_startCore__E                                    
c305b400  ti_sysbios_knl_Task_startup__E                                      
c3052a40  ti_sysbios_knl_Task_unblockI__E                                     
c309e7d0  ti_sysbios_timers_timer64_Timer_A_notAvailable__C                   
c309e7d4  ti_sysbios_timers_timer64_Timer_E_cannotSupport__C                  
c309ae78  ti_sysbios_timers_timer64_Timer_Module_State_0_device__A            
c309b280  ti_sysbios_timers_timer64_Timer_Module_State_0_gctrl__A             
c309b2a0  ti_sysbios_timers_timer64_Timer_Module_State_0_handles__A           
c309b2c0  ti_sysbios_timers_timer64_Timer_Module_State_0_intFreqs__A          
c309e7d8  ti_sysbios_timers_timer64_Timer_Module__diagsEnabled__C             
c309e7dc  ti_sysbios_timers_timer64_Timer_Module__diagsIncluded__C            
c309e7e0  ti_sysbios_timers_timer64_Timer_Module__diagsMask__C                
c309e8de  ti_sysbios_timers_timer64_Timer_Module__id__C                       
c305b420  ti_sysbios_timers_timer64_Timer_Module__startupDone__F              
c305b420  ti_sysbios_timers_timer64_Timer_Module__startupDone__S              
c309b33c  ti_sysbios_timers_timer64_Timer_Module__state__V                    
c303e260  ti_sysbios_timers_timer64_Timer_Module_startup__E                   
c309aed8  ti_sysbios_timers_timer64_Timer_Object__table__V                    
c30597e0  ti_sysbios_timers_timer64_Timer_TimerSupportProxy_enable__E         
c309e7e4  ti_sysbios_timers_timer64_Timer_anyMaskHigh__C                      
c309e7e8  ti_sysbios_timers_timer64_Timer_anyMask__C                          
c30476a0  ti_sysbios_timers_timer64_Timer_deviceConfig__I                     
c309e7ec  ti_sysbios_timers_timer64_Timer_freqDivisor__C                      
c304e6c0  ti_sysbios_timers_timer64_Timer_getFreq__E                          
c305b440  ti_sysbios_timers_timer64_Timer_getMaxTicks__E                      
c3053780  ti_sysbios_timers_timer64_Timer_initDevice__I                       
c309cd77  ti_sysbios_timers_timer64_Timer_localTimerBaseId__C                 
c309e7f0  ti_sysbios_timers_timer64_Timer_numLocalTimers__C                   
c309e7f4  ti_sysbios_timers_timer64_Timer_numTimerDevices__C                  
c304b540  ti_sysbios_timers_timer64_Timer_setPeriodMicroSecs__E               
c304f3e0  ti_sysbios_timers_timer64_Timer_start__E                            
c309e8e0  ti_sysbios_timers_timer64_Timer_startupNeeded__C                    
c3054a60  ti_sysbios_timers_timer64_Timer_startup__E                          
c30564c0  ti_sysbios_timers_timer64_Timer_stop__E                             
c309e8e2  ti_sysbios_timers_timer64_Timer_useTimer64pRegMap__C                
c309ee4c  total_frames_sent                                                   
c309ee6c  txCompFlag                                                          
c3034b70  txFrame                                                             
c309ee2c  txFrameIndex                                                        
c3034cb8  txbuf                                                               
c309a988  uartInitCfg                                                         
c3034cc0  uart_stdio                                                          
c30575a0  unlink                                                              
c3034cf4  userInitConfig                                                      
c3091010  userInstInitConfigArray                                             
c3058ac0  write                                                               
c309e7f8  xdc_runtime_Assert_E_assertFailed__C                                
c3055520  xdc_runtime_Assert_raise__I                                         
c309e7fc  xdc_runtime_Core_A_initializedParams__C                             
c309e800  xdc_runtime_Core_Module__diagsEnabled__C                            
c309e804  xdc_runtime_Core_Module__diagsIncluded__C                           
c309e808  xdc_runtime_Core_Module__diagsMask__C                               
c309e8e4  xdc_runtime_Core_Module__id__C                                      
c3057620  xdc_runtime_Core_assignLabel__I                                     
c3056560  xdc_runtime_Core_assignParams__I                                    
c304f580  xdc_runtime_Core_constructObject__I                                 
c304b780  xdc_runtime_Core_createObject__I                                    
c3051ea0  xdc_runtime_Core_deleteObject__I                                    
c309e80c  xdc_runtime_Error_E_generic__C                                      
c309e810  xdc_runtime_Error_E_memory__C                                       
c309b2e0  xdc_runtime_Error_IgnoreBlock                                       
c309e814  xdc_runtime_Error_Module__diagsEnabled__C                           
c309e818  xdc_runtime_Error_Module__diagsIncluded__C                          
c309e81c  xdc_runtime_Error_Module__diagsMask__C                              
c309e8e6  xdc_runtime_Error_Module__loggerDefined__C                          
c309e820  xdc_runtime_Error_Module__loggerFxn8__C                             
c309e824  xdc_runtime_Error_Module__loggerObj__C                              
c309b426  xdc_runtime_Error_Module__state__V                                  
c3059ba0  xdc_runtime_Error_check__E                                          
c305b460  xdc_runtime_Error_getSite__E                                        
c3059be0  xdc_runtime_Error_init__E                                           
c309e8e8  xdc_runtime_Error_maxDepth__C                                       
c304d280  xdc_runtime_Error_policyDefault__E                                  
c309e828  xdc_runtime_Error_policyFxn__C                                      
c309e82c  xdc_runtime_Error_policy__C                                         
c3053880  xdc_runtime_Error_print__E                                          
c309e830  xdc_runtime_Error_raiseHook__C                                      
c305b480  xdc_runtime_Error_raiseX__E                                         
c30555e0  xdc_runtime_Error_setX__E                                           
c305b4a0  xdc_runtime_Gate_enterSystem__E                                     
c305b4c0  xdc_runtime_Gate_leaveSystem__E                                     
c309e834  xdc_runtime_IFilterLogger_Interface__BASE__C                        
c309e838  xdc_runtime_IGateProvider_Interface__BASE__C                        
c309e83c  xdc_runtime_IHeap_Interface__BASE__C                                
c309e840  xdc_runtime_ILogger_Interface__BASE__C                              
c309e844  xdc_runtime_IModule_Interface__BASE__C                              
c309e848  xdc_runtime_Log_L_error__C                                          
c309e84c  xdc_runtime_Log_L_info__C                                           
c309e850  xdc_runtime_LoggerBuf_E_badLevel__C                                 
c3059c20  xdc_runtime_LoggerBuf_Handle__label__S                              
c30340a0  xdc_runtime_LoggerBuf_Instance_State_0_entryArr__A                  
c3059c60  xdc_runtime_LoggerBuf_Instance_finalize__E                          
c30576a0  xdc_runtime_LoggerBuf_Instance_init__E                              
c3059820  xdc_runtime_LoggerBuf_Module_GateProxy_Handle__label__S             
c305b520  xdc_runtime_LoggerBuf_Module_GateProxy_enter__E                     
c305b540  xdc_runtime_LoggerBuf_Module_GateProxy_leave__E                     
c305b1c0  xdc_runtime_LoggerBuf_Module_GateProxy_query__E                     
c309e088  xdc_runtime_LoggerBuf_Module__FXNS__C                               
c309e854  xdc_runtime_LoggerBuf_Module__gateObj__C                            
c309e8ea  xdc_runtime_LoggerBuf_Module__id__C                                 
c309b3f0  xdc_runtime_LoggerBuf_Module__root__V                               
c309ae72  xdc_runtime_LoggerBuf_Module__state__V                              
c3057720  xdc_runtime_LoggerBuf_Module_startup__E                             
c309e48c  xdc_runtime_LoggerBuf_Object__DESC__C                               
c309e20c  xdc_runtime_LoggerBuf_Object__PARAMS__C                             
c309e858  xdc_runtime_LoggerBuf_Object__count__C                              
c30556a0  xdc_runtime_LoggerBuf_Object__create__S                             
c3058b20  xdc_runtime_LoggerBuf_Object__delete__S                             
c3059ca0  xdc_runtime_LoggerBuf_Object__get__S                                
c309b218  xdc_runtime_LoggerBuf_Object__table__V                              
c305b140  xdc_runtime_LoggerBuf_TimestampProxy_get64__E                       
c305b560  xdc_runtime_LoggerBuf_disable__E                                    
c305b580  xdc_runtime_LoggerBuf_enable__E                                     
c309e8ec  xdc_runtime_LoggerBuf_filterByLevel__C                              
c30577a0  xdc_runtime_LoggerBuf_filterOutEvent__I                             
c3052b60  xdc_runtime_LoggerBuf_getFilterLevel__E                             
c3058b80  xdc_runtime_LoggerBuf_reset__E                                      
c3051fe0  xdc_runtime_LoggerBuf_setFilterLevel__E                             
c309e85c  xdc_runtime_LoggerBuf_statusLogger__C                               
c3059ce0  xdc_runtime_LoggerBuf_write0__E                                     
c3059d20  xdc_runtime_LoggerBuf_write1__E                                     
c3059d60  xdc_runtime_LoggerBuf_write2__E                                     
c304dc00  xdc_runtime_LoggerBuf_write4__E                                     
c3049060  xdc_runtime_LoggerBuf_write8__E                                     
c3059820  xdc_runtime_Main_Module_GateProxy_Handle__label__S                  
c305b1c0  xdc_runtime_Main_Module_GateProxy_query__E                          
c309e860  xdc_runtime_Main_Module__diagsEnabled__C                            
c309e864  xdc_runtime_Main_Module__diagsIncluded__C                           
c309e868  xdc_runtime_Main_Module__diagsMask__C                               
c309e8ee  xdc_runtime_Main_Module__id__C                                      
c309e8f0  xdc_runtime_Main_Module__loggerDefined__C                           
c309e86c  xdc_runtime_Main_Module__loggerFxn4__C                              
c309e870  xdc_runtime_Main_Module__loggerObj__C                               
c3059960  xdc_runtime_Memory_HeapProxy_Handle__label__S                       
c305b4e0  xdc_runtime_Memory_HeapProxy_alloc__E                               
c305b500  xdc_runtime_Memory_HeapProxy_free__E                                
c309e8f2  xdc_runtime_Memory_Module__id__C                                    
c309b41c  xdc_runtime_Memory_Module__state__V                                 
c3053980  xdc_runtime_Memory_alloc__E                                         
c305b5a0  xdc_runtime_Memory_calloc__E                                        
c309e874  xdc_runtime_Memory_defaultHeapInstance__C                           
c305b5c0  xdc_runtime_Memory_free__E                                          
c305b5e0  xdc_runtime_Memory_getMaxDefaultTypeAlign__E                        
c3058be0  xdc_runtime_Memory_valloc__E                                        
c309b3f8  xdc_runtime_Registry_Module__state__V                               
c3059da0  xdc_runtime_Registry_findById__E                                    
c309b400  xdc_runtime_Startup_Module__state__V                                
00000001  xdc_runtime_Startup__EXECFXN__C                                     
00000001  xdc_runtime_Startup__RESETFXN__C                                    
c309e878  xdc_runtime_Startup_execImpl__C                                     
c3053a80  xdc_runtime_Startup_exec__E                                         
c305b600  xdc_runtime_Startup_exec__I                                         
c309e608  xdc_runtime_Startup_firstFxns__A                                    
c309e610  xdc_runtime_Startup_firstFxns__C                                    
c309e618  xdc_runtime_Startup_lastFxns__C                                     
c309e87c  xdc_runtime_Startup_maxPasses__C                                    
c305b620  xdc_runtime_Startup_reset__I                                        
c305b640  xdc_runtime_Startup_rtsDone__E                                      
c309e4e8  xdc_runtime_Startup_sfxnRts__A                                      
c309e880  xdc_runtime_Startup_sfxnRts__C                                      
c309e0c8  xdc_runtime_Startup_sfxnTab__A                                      
c309e884  xdc_runtime_Startup_sfxnTab__C                                      
c304ac20  xdc_runtime_Startup_startMods__I                                    
c30342a0  xdc_runtime_SysMin_Module_State_0_outbuf__A                         
c309b370  xdc_runtime_SysMin_Module__state__V                                 
c3059de0  xdc_runtime_SysMin_Module_startup__E                                
c3055760  xdc_runtime_SysMin_abort__E                                         
c309e888  xdc_runtime_SysMin_bufSize__C                                       
c3059e20  xdc_runtime_SysMin_exit__E                                          
c309e8f4  xdc_runtime_SysMin_flushAtExit__C                                   
c3055820  xdc_runtime_SysMin_flush__E                                         
c309e88c  xdc_runtime_SysMin_outputFunc__C                                    
c3057820  xdc_runtime_SysMin_output__I                                        
c3056600  xdc_runtime_SysMin_putch__E                                         
c305b660  xdc_runtime_SysMin_ready__E                                         
c3059820  xdc_runtime_System_Module_GateProxy_Handle__label__S                
c305b680  xdc_runtime_System_Module_GateProxy_enter__E                        
c305b6a0  xdc_runtime_System_Module_GateProxy_leave__E                        
c305b1c0  xdc_runtime_System_Module_GateProxy_query__E                        
c309b300  xdc_runtime_System_Module_State_0_atexitHandlers__A                 
c309e890  xdc_runtime_System_Module__gateObj__C                               
c309b408  xdc_runtime_System_Module__state__V                                 
c305b6c0  xdc_runtime_System_Module_startup__E                                
c3055760  xdc_runtime_System_SupportProxy_abort__E                            
c3059e20  xdc_runtime_System_SupportProxy_exit__E                             
c3055820  xdc_runtime_System_SupportProxy_flush__E                            
c3056600  xdc_runtime_System_SupportProxy_putch__E                            
c305b660  xdc_runtime_System_SupportProxy_ready__E                            
c309e894  xdc_runtime_System_abortFxn__C                                      
c305ac40  xdc_runtime_System_abortStd__E                                      
c3059e60  xdc_runtime_System_abort__E                                         
c3059ea0  xdc_runtime_System_aprintf__E                                       
c3057920  xdc_runtime_System_aprintf_va__E                                    
c3057920  xdc_runtime_System_aprintf_va__F                                    
c30578a0  xdc_runtime_System_atexit__E                                        
c3057920  xdc_runtime_System_avprintf__E                                      
c303c3a0  xdc_runtime_System_doPrint__I                                       
c309e898  xdc_runtime_System_exitFxn__C                                       
c3054600  xdc_runtime_System_exitStd__E                                       
c3059ee0  xdc_runtime_System_exit__E                                          
c309e89c  xdc_runtime_System_extendFxn__C                                     
c3055820  xdc_runtime_System_flush__E                                         
c30566a0  xdc_runtime_System_formatNum__I                                     
c309e8a0  xdc_runtime_System_maxAtexitHandlers__C                             
c304b9c0  xdc_runtime_System_printfExtend__I                                  
c3059f20  xdc_runtime_System_printf__E                                        
c3057a20  xdc_runtime_System_printf_va__E                                     
c3057a20  xdc_runtime_System_printf_va__F                                     
c30579a0  xdc_runtime_System_processAtExit__E                                 
c3056740  xdc_runtime_System_putchar__I                                       
c305b6e0  xdc_runtime_System_snprintf_va__E                                   
c305b6e0  xdc_runtime_System_snprintf_va__F                                   
c3057a20  xdc_runtime_System_vprintf__E                                       
c305b6e0  xdc_runtime_System_vsnprintf__E                                     
c309e8f6  xdc_runtime_Text_charCnt__C                                         
c309b428  xdc_runtime_Text_charTab__A                                         
c309e8a4  xdc_runtime_Text_charTab__C                                         
c3058c40  xdc_runtime_Text_cordText__E                                        
c309e8f8  xdc_runtime_Text_isLoaded__C                                        
c309e8a8  xdc_runtime_Text_nameEmpty__C                                       
c309e8ac  xdc_runtime_Text_nameStatic__C                                      
c309e8b0  xdc_runtime_Text_nameUnknown__C                                     
c309db50  xdc_runtime_Text_nodeTab__A                                         
c309e8b4  xdc_runtime_Text_nodeTab__C                                         
c30567e0  xdc_runtime_Text_printVisFxn__I                                     
c3052120  xdc_runtime_Text_putLab__E                                          
c3050d00  xdc_runtime_Text_putMod__E                                          
c304dde0  xdc_runtime_Text_putSite__E                                         
c309e8fa  xdc_runtime_Text_registryModsLastId__C                              
c305b700  xdc_runtime_Text_ropeText__E                                        
c309e8fc  xdc_runtime_Text_unnamedModsLastId__C                               
c3054b40  xdc_runtime_Text_visitRope2__I                                      
c309e8b8  xdc_runtime_Text_visitRopeFxn__C                                    
c305b720  xdc_runtime_Text_visitRope__I                                       
c3056880  xdc_runtime_Text_xprintf__I                                         
c305b140  xdc_runtime_Timestamp_SupportProxy_get64__E                         
c305b140  xdc_runtime_Timestamp_get64__E                                      


GLOBAL SYMBOLS: SORTED BY Symbol Address 

address   name                                                                
-------   ----                                                                
00000000  _argsize                                                            
00000000  ti_sysbios_family_c64p_Cache_l2Size                                 
00000001  xdc_runtime_Startup__EXECFXN__C                                     
00000001  xdc_runtime_Startup__RESETFXN__C                                    
00008000  ti_sysbios_family_c64p_Cache_l1dSize                                
00008000  ti_sysbios_family_c64p_Cache_l1pSize                                
00020000  __TI_STACK_SIZE                                                     
c3000000  __ASM__                                                             
c3000000  ti_sysbios_heaps_HeapMem_Instance_State_0_buf__A                    
c3000068  __ISA__                                                             
c3000080  __PLAT__                                                            
c30000a8  __TARG__                                                            
c30000d0  __TRDR__                                                            
c3030d40  ti_sysbios_heaps_HeapMem_Instance_State_1_buf__A                    
c3032d40  ti_sysbios_knl_Task_Instance_State_0_stack__A                       
c3033540  ti_sysbios_knl_Task_Instance_State_1_stack__A                       
c3033d40  Mcasp_Instances                                                     
c30340a0  xdc_runtime_LoggerBuf_Instance_State_0_entryArr__A                  
c30342a0  xdc_runtime_SysMin_Module_State_0_outbuf__A                         
c30344a0  UartObjects                                                         
c3034638  __TI_tmpnams                                                        
c3034778  mcaspParams                                                         
c3034830  I2cObjects                                                          
c30348c8  Mcasp_loopDstBuf                                                    
c3034950  Mcasp_loopSrcBuf                                                    
c30349d8  Mcasp_muteBuf                                                       
c3034ae8  Mcasp_deviceInstInfo                                                
c3034b30  rxFrame                                                             
c3034b70  txFrame                                                             
c3034bb0  params                                                              
c3034bd4  eb                                                                  
c3034bf8  edma3_dma_ch_max_val                                                
c3034c10  edma3_link_ch_max_val                                               
c3034c28  edma3_link_ch_min_val                                               
c3034c40  edma3_log_ch_max_val                                                
c3034c58  edma3_qdma_ch_max_val                                               
c3034c70  edma3_qdma_ch_min_val                                               
c3034c88  isrInstanceObject                                                   
c3034c98  errCbStatusRcv                                                      
c3034ca0  errCbStatusXmt                                                      
c3034ca8  parmbuf                                                             
c3034cb0  rxbuf                                                               
c3034cb8  txbuf                                                               
c3034cc0  uart_stdio                                                          
c3034cd0  Aic31_deviceInstInfo                                                
c3034cd8  slaveData                                                           
c3034ce0  inUse                                                               
c3034cf0  resMgrInstance                                                      
c3034cf4  userInitConfig                                                      
c3034cf8  ptrRMIArray                                                         
c3034cfc  ptrInitCfgArray                                                     
c3034d00  Aic31_init                                                          
c3034d8c  aic31MdBindDev                                                      
c3034ff4  aic31MdUnBindDev                                                    
c3035098  aic31MdCreateChan                                                   
c303534c  aic31MdControlChan                                                  
c3035700  aic31MdSubmitChan                                                   
c303572c  aic31MdDeleteChan                                                   
c3036860  mcaspCreateChan                                                     
c3037da0  Mcasp_localEdmaChanPaRAMsetup                                       
c3038ea0  EDMA3_RM_allocResource                                              
c3039ae0  EDMA3_DRV_requestChannel                                            
c303b1b8  GblErrXmt                                                           
c303b1e8  GblErrRcv                                                           
c303b214  mcaspAppCallback                                                    
c303b71c  Audio_echo_Task                                                     
c303bac0  Mcasp_localEdmaCallback                                             
c303c3a0  xdc_runtime_System_doPrint__I                                       
c303cc40  ti_sysbios_knl_Semaphore_pend__E                                    
c303d400  ti_sysbios_family_c64p_Exception_handler__I                         
c303e260  ti_sysbios_timers_timer64_Timer_Module_startup__E                   
c303f000  EDMA3_RM_open                                                       
c303fcc0  AIC31Reset                                                          
c303fce4  AIC31DataConfig                                                     
c303fde0  AIC31SampleRateConfig                                               
c3040064  AIC31ADCInit                                                        
c30400c0  AIC31DACInit                                                        
c3040184  AIC31ADCDeInit                                                      
c304022c  AIC31DACDeInit                                                      
c3040300  ti_sysbios_heaps_HeapMem_allocUnprotected__E                        
c3040940  mcaspBindDev                                                        
c3040f00  ti_sysbios_heaps_HeapMem_freeUnprotected__E                         
c30414a0  Mcasp_localAbortReset                                               
c3041a00  mcaspIsrOutput                                                      
c3041f60  mcaspIsrInput                                                       
c3042480  Mcasp_localGetIndicesSyncType                                       
c3042e20  ti_sysbios_knl_Task_sleep__E                                        
c30432e0  Board_pinmuxConfig                                                  
c3043740  EDMA3_RM_freeResource                                               
c3044400  Mcasp_localUpdtDtPktToLnkPrms                                       
c3044c40  EDMA3_RM_create                                                     
c3045440  fputs                                                               
c3045820  Mcasp_localConfigXmtSection                                         
c3045bc0  mcaspDeleteChan                                                     
c3045f60  ti_sysbios_knl_Task_Module_startup__E                               
c3046300  mcaspRegisterInt                                                    
c3046680  Mcasp_localSetupHwInfo                                              
c30469e0  Mcasp_localConfigRcvSection                                         
c3047060  EDMA3_DRV_freeChannel                                               
c30473b0  I2CCodecIfInit                                                      
c30474e8  CodecRegWrite                                                       
c3047538  CodecRegRead                                                        
c3047584  CodecRegBitSet                                                      
c3047608  CodecRegBitClr                                                      
c30476a0  ti_sysbios_timers_timer64_Timer_deviceConfig__I                     
c3047cc0  McaspDevice_init                                                    
c3047fc0  Board_CorePLLConfig                                                 
c30482a0  EDMA3_DRV_disableTransfer                                           
c3048560  EDMA3_DRV_open                                                      
c3048ae0  mcaspSubmitReq                                                      
c3048da0  ti_sysbios_heaps_HeapMem_Instance_init__E                           
c3049060  xdc_runtime_LoggerBuf_write8__E                                     
c3049320  Board_DDRPLLConfig                                                  
c30495c0  Mcasp_localLoadPktToEdma                                            
c3049860  ti_sysbios_knl_Clock_workFunc__E                                    
c3049b00  EDMA3_DRV_create                                                    
c3049d80  EDMA3_DRV_enableTransfer                                            
c304a000  ti_sysbios_family_c64p_Cache_Module_startup__E                      
c304a280  ti_sysbios_knl_Semaphore_post__E                                    
c304a500  __c6xabi_divull                                                     
c304a760  ti_sysbios_family_c64p_Cache_block__I                               
c304a9c0  ti_sysbios_family_c64p_Hwi_dispatchCore__I                          
c304ac20  xdc_runtime_Startup_startMods__I                                    
c304ae80  Board_moduleClockEnable                                             
c304b0c0  ti_sysbios_family_c64p_EventCombiner_dispatch__E                    
c304b300  ti_sysbios_family_c64p_Exception_internalHandler__I                 
c304b540  ti_sysbios_timers_timer64_Timer_setPeriodMicroSecs__E               
c304b780  xdc_runtime_Core_createObject__I                                    
c304b9c0  xdc_runtime_System_printfExtend__I                                  
c304be20  setvbuf                                                             
c304c040  ti_sysbios_family_c64p_Hwi_reconfig__E                              
c304c260  ti_sysbios_knl_Swi_run__I                                           
c304c480  EDMA3_DRV_getPaRAMField                                             
c304c680  SemaphoreP_create                                                   
c304ca80  ti_sysbios_family_c64p_Hwi_dispatchAlways                           
c304cc80  mcaspBitSetGblRCtl                                                  
c304ce80  mcaspBitSetGblXCtl                                                  
c304d080  ti_sysbios_family_c64p_EventCombiner_dispatchPlug__E                
c304d280  xdc_runtime_Error_policyDefault__E                                  
c304d480  Board_moduleClockSyncReset                                          
c304d660  HwiP_create                                                         
c304d840  ti_sysbios_gates_GateMutex_enter__E                                 
c304da20  ti_sysbios_knl_Task_exit__E                                         
c304dc00  xdc_runtime_LoggerBuf_write4__E                                     
c304dde0  xdc_runtime_Text_putSite__E                                         
c304dfc0  EDMA3_DRV_linkChannel                                               
c304e180  Mcasp_localCancelAndAbortAllIo                                      
c304e500  ti_sysbios_io_DEV_postInit__I                                       
c304e6c0  ti_sysbios_timers_timer64_Timer_getFreq__E                          
c304e880  HOSTrename                                                          
c304ea20  Mcasp_localCollectRcvErrorStats                                     
c304ebc0  Mcasp_localCollectXmtErrorStats                                     
c304ed60  Mcasp_localSetupEdmaDuringOpen                                      
c304ef00  edma3init                                                           
c304f0a0  mcaspSubmitChan                                                     
c304f240  ti_sysbios_family_c64p_Cache_getL2InitSize__I                       
c304f3e0  ti_sysbios_timers_timer64_Timer_start__E                            
c304f580  xdc_runtime_Core_constructObject__I                                 
c304f720  Board_DDR3Init                                                      
c304f8a0  EDMA3_DRV_getPaRAM                                                  
c304fa20  EDMA3_RM_registerTccCb                                              
c304fba0  EDMA3_RM_unregisterTccCb                                            
c304fd20  Mcasp_localEdmaProcessPkt                                           
c3050020  mcaspUnRegisterInt                                                  
c30501a0  ti_sysbios_family_c64p_Exception_dispatch__E                        
c3050320  ti_sysbios_knl_Task_schedule__I                                     
c30504a0  ti_sysbios_knl_Task_startCore__E                                    
c3050620  Board_init                                                          
c3050780  Osal_RegisterInterrupt                                              
c30508e0  mcaspBitRemoveGblXCtl                                               
c3050a40  registerEdma3Interrupts                                             
c3050ba0  ti_sysbios_knl_Swi_post__E                                          
c3050d00  xdc_runtime_Text_putMod__E                                          
c3050e60  EDMA3_DRV_setPaRAM                                                  
c3050fa0  Mcasp_localIsrSwiFxn                                                
c30510e0  __TI_closefile                                                      
c3051220  fflush                                                              
c3051360  getdevice                                                           
c30514a0  mcaspBitRemoveGblRCtl                                               
c30515e0  mcaspWriteChanStatRam                                               
c3051720  mcaspWriteUserDataRam                                               
c3051860  ti_sysbios_family_c64p_Cache_getL1DInitSize__I                      
c30519a0  ti_sysbios_family_c64p_Cache_getL1PInitSize__I                      
c3051ae0  ti_sysbios_family_c64p_Hwi_Module_startup__E                        
c3051c20  ti_sysbios_knl_Semaphore_Instance_init__E                           
c3051d60  ti_sysbios_knl_Task_blockI__E                                       
c3051ea0  xdc_runtime_Core_deleteObject__I                                    
c3051fe0  xdc_runtime_LoggerBuf_setFilterLevel__E                             
c3052120  xdc_runtime_Text_putLab__E                                          
c3052260  Board_configEmifPinMux                                              
c3052380  CSL_chipReadReg                                                     
c30524a0  _auto_init_elf                                                      
c30525c0  edma3MemCpy                                                         
c30526e0  fseek                                                               
c3052800  main                                                                
c3052920  ti_sysbios_family_c64p_Hwi_Instance_init__E                         
c3052a40  ti_sysbios_knl_Task_unblockI__E                                     
c3052b60  xdc_runtime_LoggerBuf_getFilterLevel__E                             
c3052c80  Board_moduleClockInit                                               
c3052d80  EDMA3_DRV_clearErrorBits                                            
c3052e80  EventCombinerP_GroupRegisterInt                                     
c3053280  __TI_wrt_ok                                                         
c3053380  mcaspValidateBufferConfig                                           
c3053480  ti_sysbios_family_c64p_Hwi_Instance_finalize__E                     
c3053580  ti_sysbios_knl_Swi_restoreHwi__E                                    
c3053680  ti_sysbios_knl_Swi_schedule__I                                      
c3053780  ti_sysbios_timers_timer64_Timer_initDevice__I                       
c3053880  xdc_runtime_Error_print__E                                          
c3053980  xdc_runtime_Memory_alloc__E                                         
c3053a80  xdc_runtime_Startup_exec__E                                         
c3053b80  EDMA3_DRV_getPaRAMPhyAddr                                           
c3053c60  HOSTlseek                                                           
c3053d40  HOSTopen                                                            
c3053e20  HOSTwrite                                                           
c3053f00  I2C_socGetInitCfg                                                   
c3053f70  I2C_socSetInitCfg                                                   
c3053fe0  Mcasp_localAbortRequests                                            
c30540c0  Mcasp_localCompleteCurrentIo                                        
c3054440  __c6xabi_divi                                                       
c3054440  __divi                                                              
c3054520  close                                                               
c3054600  exit                                                                
c3054600  xdc_runtime_System_exitStd__E                                       
c30546e0  memset                                                              
c30547c0  ti_sysbios_heaps_HeapMem_alloc__E                                   
c30548a0  ti_sysbios_knl_Swi_runLoop__I                                       
c3054980  ti_sysbios_knl_Swi_startup__E                                       
c3054a60  ti_sysbios_knl_Clock_TimerProxy_startup__E                          
c3054a60  ti_sysbios_timers_timer64_Timer_startup__E                          
c3054b40  xdc_runtime_Text_visitRope2__I                                      
c3054c20  HOSTread                                                            
c3054ce0  HOSTunlink                                                          
c3054da0  Osal_delay                                                          
c3054fe0  __TI_doflush                                                        
c30550a0  __c6xabi_divu                                                       
c30550a0  __divu                                                              
c3055160  edma3MemZero                                                        
c3055220  edma3OsProtectEntry                                                 
c30552e0  ti_sysbios_heaps_HeapMem_getStats__E                                
c30553a0  ti_sysbios_knl_Clock_logTick__E                                     
c3055460  __TI_tls_init                                                       
c3055520  xdc_runtime_Assert_raise__I                                         
c30555e0  xdc_runtime_Error_setX__E                                           
c30556a0  xdc_runtime_LoggerBuf_Object__create__S                             
c3055760  xdc_runtime_SysMin_abort__E                                         
c3055760  xdc_runtime_System_SupportProxy_abort__E                            
c3055820  xdc_runtime_SysMin_flush__E                                         
c3055820  xdc_runtime_System_SupportProxy_flush__E                            
c3055820  xdc_runtime_System_flush__E                                         
c30558e0  HOSTclose                                                           
c3055980  I2C_init                                                            
c3055a20  Osal_DeleteInterrupt                                                
c3055ac0  UART_init                                                           
c3055b60  UART_stdioInit                                                      
c3055d40  __TI_cleanup                                                        
c3055de0  __c6xabi_remu                                                       
c3055de0  __remu                                                              
c3055e80  _c_int00                                                            
c3055f20  ti_sysbios_family_c64p_Hwi_plug__E                                  
c3055fc0  memcpy                                                              
c3056060  ti_sysbios_family_c64p_Exception_Module_startup__E                  
c3056100  ti_sysbios_family_c64p_Hwi_construct                                
c30561a0  ti_sysbios_family_c64p_Hwi_dispatchC__I                             
c3056240  ti_sysbios_family_c64p_Hwi_eventMap__E                              
c30562e0  ti_sysbios_family_c64p_Hwi_getStackInfo__E                          
c30562e0  ti_sysbios_hal_Hwi_HwiProxy_getStackInfo__E                         
c30562e0  ti_sysbios_hal_Hwi_getStackInfo__E                                  
c3056380  ti_sysbios_heaps_HeapMem_init__I                                    
c3056420  ti_sysbios_knl_Task_allBlockedFunction__I                           
c30564c0  ti_sysbios_timers_timer64_Timer_stop__E                             
c3056560  xdc_runtime_Core_assignParams__I                                    
c3056600  xdc_runtime_SysMin_putch__E                                         
c3056600  xdc_runtime_System_SupportProxy_putch__E                            
c30566a0  xdc_runtime_System_formatNum__I                                     
c3056740  xdc_runtime_System_putchar__I                                       
c30567e0  xdc_runtime_Text_printVisFxn__I                                     
c3056880  xdc_runtime_Text_xprintf__I                                         
c30569a0  EventCombinerP_getHwi                                               
c3056a20  EventCombinerP_getIntNum                                            
c3056aa0  McASPRxClkCfg                                                       
c3056b20  McASPTxClkCfg                                                       
c3056ba0  UART_charPut_v0                                                     
c3056c20  __TI_readmsg                                                        
c3056ca0  __c6xabi_llshl                                                      
c3056d20  ti_sysbios_family_c62_TaskSupport_swap__E                           
c3056d20  ti_sysbios_knl_Task_SupportProxy_swap__E                            
c3056da0  edma3OsProtectExit                                                  
c3056e20  edma3ParamCpy                                                       
c3056ea0  finddevice                                                          
c3056f20  ti_sysbios_BIOS_atExitFunc__I                                       
c3056fa0  ti_sysbios_BIOS_registerRTSLock__I                                  
c3057020  ti_sysbios_family_c64p_Cache_invL1pAll__E                           
c30570a0  ti_sysbios_gates_GateHwi_Object__create__S                          
c3057120  ti_sysbios_gates_GateMutex_Object__create__S                        
c30571a0  ti_sysbios_hal_Hwi_checkStack                                       
c3057220  ti_sysbios_hal_Hwi_initStack                                        
c30572a0  ti_sysbios_heaps_HeapMem_Object__create__S                          
c3057320  ti_sysbios_knl_Clock_doTick__I                                      
c30573a0  ti_sysbios_knl_Idle_run__E                                          
c3057420  ti_sysbios_knl_Semaphore_create                                     
c30574a0  ti_sysbios_knl_Semaphore_pendTimeout__I                             
c3057520  ti_sysbios_knl_Task_enable__E                                       
c30575a0  remove                                                              
c30575a0  unlink                                                              
c3057620  xdc_runtime_Core_assignLabel__I                                     
c30576a0  xdc_runtime_LoggerBuf_Instance_init__E                              
c3057720  xdc_runtime_LoggerBuf_Module_startup__E                             
c30577a0  xdc_runtime_LoggerBuf_filterOutEvent__I                             
c3057820  xdc_runtime_SysMin_output__I                                        
c30578a0  xdc_runtime_System_atexit__E                                        
c3057920  xdc_runtime_System_aprintf_va__E                                    
c3057920  xdc_runtime_System_aprintf_va__F                                    
c3057920  xdc_runtime_System_avprintf__E                                      
c30579a0  xdc_runtime_System_processAtExit__E                                 
c3057a20  xdc_runtime_System_printf_va__E                                     
c3057a20  xdc_runtime_System_printf_va__F                                     
c3057a20  xdc_runtime_System_vprintf__E                                       
c3057aa0  HwiP_delete                                                         
c3057b00  I2C_Params_init                                                     
c3057b60  I2C_open                                                            
c3057bc0  I2C_transfer                                                        
c3057c80  Mcasp_localGetNextIndex                                             
c3057ce0  Mcasp_localResetRcv                                                 
c3057d40  Mcasp_localResetXmt                                                 
c3057da0  Mcasp_socGetInitCfg                                                 
c3057e00  Mcasp_socSetInitCfg                                                 
c3057e60  Osal_ClearInterrupt                                                 
c3057ec0  Osal_getHwAttrs                                                     
c3057f20  Osal_getThreadType                                                  
c3057f80  SemaphoreP_delete                                                   
c3057fe0  SemaphoreP_pend                                                     
c3058040  UART_divisorLatchWrite_v0                                           
c30580a0  UART_fifoWait_v0                                                    
c3058100  UART_lineCharacConfig_v0                                            
c3058220  __TI_writemsg                                                       
c3058278  C$$IO$$                                                             
c3058280  __c6xabi_llshru                                                     
c30582e0  _subcull                                                            
c3058340  ti_sysbios_family_c64p_Hwi_switchAndDispatch__I                     
c30583a0  ti_sysbios_family_xxx_Hwi_switchAndRunFunc                          
c3058400  configureAudio                                                      
c3058420  configMcASP_SocHwInfo                                               
c3058460  edma3OsSemCreate                                                    
c30584c0  edma3OsSemTake                                                      
c3058520  lseek                                                               
c3058580  ti_sysbios_BIOS_errorRaiseHook__I                                   
c30585e0  ti_sysbios_BIOS_removeRTSLock__I                                    
c3058640  ti_sysbios_BIOS_startFunc__I                                        
c30586a0  ti_sysbios_family_c64p_Cache_setMar__E                              
c3058700  ti_sysbios_family_c64p_EventCombiner_unused__E                      
c3058760  ti_sysbios_gates_GateMutex_Object__delete__S                        
c30587c0  ti_sysbios_heaps_HeapMem_free__E                                    
c3058820  ti_sysbios_io_DEV_Module_startup__E                                 
c3058880  ti_sysbios_knl_Clock_Module_startup__E                              
c30588e0  ti_sysbios_knl_Queue_construct                                      
c3058940  ti_sysbios_knl_Semaphore_construct                                  
c30589a0  ti_sysbios_knl_Swi_Module_startup__E                                
c3058a00  ti_sysbios_knl_Task_enter__I                                        
c3058a60  malloc                                                              
c3058ac0  write                                                               
c3058b20  xdc_runtime_LoggerBuf_Object__delete__S                             
c3058b80  xdc_runtime_LoggerBuf_reset__E                                      
c3058be0  xdc_runtime_Memory_valloc__E                                        
c3058c40  xdc_runtime_Text_cordText__E                                        
c3058ca0  I2CMasterInitExpClk                                                 
c3058d20  I2C_transactionInit                                                 
c3058da0  McASPReadFifoEnable                                                 
c3058de0  McASPRxHFClkPolaritySet                                             
c3058e20  McASPSerializerRxSet                                                
c3058e60  McASPSerializerTxSet                                                
c3058ea0  McASPTxHFClkPolaritySet                                             
c3058ee0  McASPWriteFifoEnable                                                
c3058f20  MuxIntcP_create                                                     
c3058f60  Osal_DisableInterrupt                                               
c3058fa0  Osal_EnableInterrupt                                                
c3058fe0  Osal_RegisterInterrupt_initParams                                   
c3059020  SemaphoreP_Params_init                                              
c3059060  SemaphoreP_post                                                     
c3059060  SemaphoreP_postFromClock                                            
c3059060  SemaphoreP_postFromISR                                              
c30590a0  UART_breakCtl_v0                                                    
c30590e0  UART_charGetNonBlocking_v0                                          
c3059120  UART_divisorValCompute_v0                                           
c3059160  UART_fIFOConfig_v0                                                  
c30591a0  UART_fIFORegisterWrite_v0                                           
c30591e0  UART_intDisable_v0                                                  
c3059220  UART_intEnable_v0                                                   
c3059260  UART_intIdentityGet_v0                                              
c30592a0  UART_loopbackModeControl_v0                                         
c30592e0  UART_open                                                           
c3059320  UART_readLineStatus_v0                                              
c3059360  _DebugP_assert                                                      
c30593a0  __c6xabi_abort_msg                                                  
c30593e0  __c6xabi_strasgi_64plus                                             
c30593e0  __strasgi_64plus                                                    
c3059420  _args_main                                                          
c3059460  ti_sysbios_family_c62_TaskSupport_buildTaskStack                    
c30594a0  edma3OsSemGive                                                      
c30594e0  free                                                                
c3059520  ti_sysbios_BIOS_exitFunc__I                                         
c3059560  ti_sysbios_BIOS_rtsLock__I                                          
c30595a0  ti_sysbios_BIOS_rtsUnlock__I                                        
c30595e0  ti_sysbios_family_c62_TaskSupport_start__E                          
c30595e0  ti_sysbios_knl_Task_SupportProxy_start__E                           
c3059620  ti_sysbios_family_c64p_EventCombiner_Module_startup__E              
c3059660  ti_sysbios_family_c64p_EventCombiner_disableEvent__E                
c30596a0  ti_sysbios_family_c64p_EventCombiner_enableEvent__E                 
c30596e0  ti_sysbios_family_c64p_Hwi_destruct                                 
c3059720  ti_sysbios_family_c64p_Hwi_disableInterrupt__E                      
c3059720  ti_sysbios_hal_Hwi_HwiProxy_disableInterrupt__E                     
c3059720  ti_sysbios_hal_Hwi_disableInterrupt__E                              
c3059760  ti_sysbios_family_c64p_Hwi_enableInterrupt__E                       
c3059760  ti_sysbios_hal_Hwi_HwiProxy_enableInterrupt__E                      
c3059760  ti_sysbios_hal_Hwi_enableInterrupt__E                               
c30597a0  ti_sysbios_family_c64p_Hwi_getEventId__E                            
c30597e0  ti_sysbios_family_c64p_primus_TimerSupport_enable__E                
c30597e0  ti_sysbios_timers_timer64_Timer_TimerSupportProxy_enable__E         
c3059820  ti_sysbios_gates_GateHwi_Handle__label__S                           
c3059820  xdc_runtime_LoggerBuf_Module_GateProxy_Handle__label__S             
c3059820  xdc_runtime_Main_Module_GateProxy_Handle__label__S                  
c3059820  xdc_runtime_System_Module_GateProxy_Handle__label__S                
c3059860  ti_sysbios_gates_GateHwi_Object__delete__S                          
c30598a0  ti_sysbios_BIOS_RtsGateProxy_Handle__label__S                       
c30598a0  ti_sysbios_gates_GateMutex_Handle__label__S                         
c30598a0  ti_sysbios_heaps_HeapMem_Module_GateProxy_Handle__label__S          
c30598e0  ti_sysbios_gates_GateMutex_Instance_init__E                         
c3059920  ti_sysbios_gates_GateMutex_leave__E                                 
c3059960  ti_sysbios_heaps_HeapMem_Handle__label__S                           
c3059960  xdc_runtime_Memory_HeapProxy_Handle__label__S                       
c30599a0  ti_sysbios_heaps_HeapMem_Object__delete__S                          
c30599e0  ti_sysbios_heaps_HeapMem_Object__get__S                             
c3059a20  ti_sysbios_knl_Queue_get__E                                         
c3059a60  ti_sysbios_knl_Queue_put__E                                         
c3059aa0  ti_sysbios_knl_Semaphore_destruct                                   
c3059ae0  ti_sysbios_knl_Swi_Object__get__S                                   
c3059b20  ti_sysbios_knl_Task_Object__get__S                                  
c3059b60  ti_sysbios_knl_Task_sleepTimeout__I                                 
c3059ba0  xdc_runtime_Error_check__E                                          
c3059be0  xdc_runtime_Error_init__E                                           
c3059c20  xdc_runtime_LoggerBuf_Handle__label__S                              
c3059c60  xdc_runtime_LoggerBuf_Instance_finalize__E                          
c3059ca0  xdc_runtime_LoggerBuf_Object__get__S                                
c3059ce0  xdc_runtime_LoggerBuf_write0__E                                     
c3059d20  xdc_runtime_LoggerBuf_write1__E                                     
c3059d60  xdc_runtime_LoggerBuf_write2__E                                     
c3059da0  xdc_runtime_Registry_findById__E                                    
c3059de0  xdc_runtime_SysMin_Module_startup__E                                
c3059e20  xdc_runtime_SysMin_exit__E                                          
c3059e20  xdc_runtime_System_SupportProxy_exit__E                             
c3059e60  xdc_runtime_System_abort__E                                         
c3059ea0  xdc_runtime_System_aprintf__E                                       
c3059ee0  xdc_runtime_System_exit__E                                          
c3059f20  xdc_runtime_System_printf__E                                        
c3059f60  Board_PLLInit                                                       
c3059f80  Board_uartStdioInit                                                 
c3059fa0  CacheP_wb                                                           
c3059fc0  CacheP_wbInv                                                        
c3059fe0  EventCombinerP_disableEvent                                         
c305a000  EventCombinerP_dispatchPlug                                         
c305a020  EventCombinerP_enableEvent                                          
c305a040  HwiP_clearInterrupt                                                 
c305a060  HwiP_disable                                                        
c305a080  HwiP_disableInterrupt                                               
c305a0a0  HwiP_enableInterrupt                                                
c305a0c0  HwiP_restore                                                        
c305a0e0  I2CIntVectGet                                                       
c305a100  I2CMasterBusBusy                                                    
c305a120  I2CMasterControl                                                    
c305a140  I2CMasterDataGet                                                    
c305a160  I2CMasterDataPut                                                    
c305a180  I2CMasterDisable                                                    
c305a1a0  I2CMasterEnable                                                     
c305a1c0  I2CMasterErr                                                        
c305a1e0  I2CMasterIntClearEx                                                 
c305a200  I2CMasterIntDisableEx                                               
c305a220  I2CMasterIntEnableEx                                                
c305a240  I2CMasterIntStatusEx                                                
c305a260  I2CMasterSlaveAddrSet                                               
c305a280  I2CMasterStart                                                      
c305a2a0  I2CMasterStop                                                       
c305a2c0  I2CModeControl                                                      
c305a2e0  I2COwnAddressSet                                                    
c305a300  I2CSetDataCount                                                     
c305a320  I2CSlaveEnable                                                      
c305a340  McASPDITLeftChanStatusSet                                           
c305a360  McASPDITLeftUserDataRamSet                                          
c305a380  McASPDITModeCtlWrite                                                
c305a3a0  McASPDITRightChanStatusSet                                          
c305a3c0  McASPDITRightUserDataRamSet                                         
c305a3e0  McASPDlbRegRead                                                     
c305a400  McASPDlbRegWrite                                                    
c305a420  McASPGlobalCtlGet                                                   
c305a440  McASPGlobalCtlReset                                                 
c305a460  McASPGlobalCtlSet                                                   
c305a480  McASPPinDirInputSet                                                 
c305a4a0  McASPPinDirOutputSet                                                
c305a4c0  McASPPinGPIOSet                                                     
c305a4e0  McASPReadFifoDisable                                                
c305a500  McASPRxClkCheckConfig                                               
c305a520  McASPRxClkCheckRegRead                                              
c305a540  McASPRxClkCheckRegWrite                                             
c305a560  McASPRxClkPolaritySet                                               
c305a580  McASPRxFmtMaskSet                                                   
c305a5a0  McASPRxFmtSet                                                       
c305a5c0  McASPRxFrameSyncCfg                                                 
c305a5e0  McASPRxGlobalCtlGet                                                 
c305a600  McASPRxGlobalCtlSet                                                 
c305a620  McASPRxIntDisable                                                   
c305a640  McASPRxIntEnable                                                    
c305a660  McASPRxIntrStatusGet                                                
c305a680  McASPRxReset                                                        
c305a6a0  McASPRxStatusGet                                                    
c305a6c0  McASPRxStatusSet                                                    
c305a6e0  McASPRxTimeSlotSet                                                  
c305a700  McASPSerializerSet                                                  
c305a720  McASPTxClkCheckConfig                                               
c305a740  McASPTxClkCheckRegRead                                              
c305a760  McASPTxClkCheckRegWrite                                             
c305a780  McASPTxClkPolaritySet                                               
c305a7a0  McASPTxFmtMaskSet                                                   
c305a7c0  McASPTxFmtSet                                                       
c305a7e0  McASPTxFrameSyncCfg                                                 
c305a800  McASPTxGlobalCtlGet                                                 
c305a820  McASPTxGlobalCtlSet                                                 
c305a840  McASPTxIntDisable                                                   
c305a860  McASPTxIntEnable                                                    
c305a880  McASPTxIntrStatusGet                                                
c305a8a0  McASPTxReset                                                        
c305a8c0  McASPTxRxClkSyncDisable                                             
c305a8e0  McASPTxRxClkSyncEnable                                              
c305a900  McASPTxRxDMAEvtCntrlWrite                                           
c305a920  McASPTxRxFrameSyncRead                                              
c305a940  McASPTxStatusGet                                                    
c305a960  McASPTxStatusSet                                                    
c305a980  McASPTxTimeSlotSet                                                  
c305a9a0  McASPWriteFifoDisable                                               
c305a9c0  MuxIntcP_clearInEvent                                               
c305a9e0  MuxIntcP_disableOutEvent                                            
c305aa00  MuxIntcP_enableOutEvent                                             
c305aa20  Osal_Queue_construct                                                
c305aa40  Osal_Queue_empty                                                    
c305aa60  Osal_Queue_get                                                      
c305aa80  Osal_Queue_handle                                                   
c305aaa0  Osal_Queue_put                                                      
c305aac0  UART_Params_init                                                    
c305ab00  UART_divisorLatchDisable_v0                                         
c305ab20  UART_fIFOCharPut_v0                                                 
c305ab40  UART_fifoEmpty_v0                                                   
c305ab80  UART_operatingModeSelect_v0                                         
c305aba0  UART_pwremuConfig_v0                                                
c305abc0  _nop                                                                
c305abe0  _register_lock                                                      
c305ac00  _register_unlock                                                    
c305ac20  ti_sysbios_family_c62_TaskSupport_glue                              
c305ac40  C$$EXIT                                                             
c305ac40  abort                                                               
c305ac40  xdc_runtime_System_abortStd__E                                      
c305ac60  __TI_decompress_none                                                
c305ac80  __TI_decompress_rle24                                               
c305aca0  determineProcId                                                     
c305acc0  disableErrorInterrupt                                               
c305ace0  disableXferCompInterrupt                                            
c305ad00  enableErrorInterrupt                                                
c305ad20  enableXferCompInterrupt                                             
c305ad40  isGblConfigRequired                                                 
c305ad60  lisrEdma3CCErrHandler0                                              
c305ad80  lisrEdma3ComplHandler0                                              
c305ada0  lisrEdma3TC0ErrHandler0                                             
c305adc0  lisrEdma3TC1ErrHandler0                                             
c305ade0  lisrEdma3TC2ErrHandler0                                             
c305ae00  lisrEdma3TC3ErrHandler0                                             
c305ae20  lisrEdma3TC4ErrHandler0                                             
c305ae40  lisrEdma3TC5ErrHandler0                                             
c305ae60  lisrEdma3TC6ErrHandler0                                             
c305ae80  lisrEdma3TC7ErrHandler0                                             
c305aea0  mcaspIsr                                                            
c305aec0  ti_sysbios_BIOS_RtsGateProxy_enter__E                               
c305aee0  ti_sysbios_BIOS_RtsGateProxy_leave__E                               
c305af00  ti_sysbios_BIOS_getThreadType__E                                    
c305af20  ti_sysbios_BIOS_linkedWithIncorrectBootLibrary__E                   
c305af40  ti_sysbios_BIOS_nullFunc__I                                         
c305af60  ti_sysbios_BIOS_setThreadType__E                                    
c305af80  ti_sysbios_BIOS_start__E                                            
c305afa0  ti_sysbios_family_c62_TaskSupport_Module__startupDone__S            
c305afa0  ti_sysbios_knl_Task_SupportProxy_Module__startupDone__S             
c305afc0  ti_sysbios_family_c64p_Cache_inv__E                                 
c305afc0  ti_sysbios_hal_Cache_CacheProxy_inv__E                              
c305afc0  ti_sysbios_hal_Cache_inv__E                                         
c305afe0  ti_sysbios_family_c64p_Cache_wbInv__E                               
c305afe0  ti_sysbios_hal_Cache_CacheProxy_wbInv__E                            
c305afe0  ti_sysbios_hal_Cache_wbInv__E                                       
c305b000  ti_sysbios_family_c64p_Cache_wb__E                                  
c305b000  ti_sysbios_hal_Cache_CacheProxy_wb__E                               
c305b000  ti_sysbios_hal_Cache_wb__E                                          
c305b020  ti_sysbios_family_c64p_Hwi_Module__startupDone__F                   
c305b020  ti_sysbios_family_c64p_Hwi_Module__startupDone__S                   
c305b020  ti_sysbios_hal_Hwi_HwiProxy_Module__startupDone__S                  
c305b040  ti_sysbios_family_c64p_Hwi_Params__init__S                          
c305b040  ti_sysbios_hal_Hwi_HwiProxy_Params__init__S                         
c305b060  ti_sysbios_family_c64p_Hwi_clearInterrupt__E                        
c305b060  ti_sysbios_hal_Hwi_HwiProxy_clearInterrupt__E                       
c305b060  ti_sysbios_hal_Hwi_clearInterrupt__E                                
c305b080  ti_sysbios_family_c64p_Hwi_getFunc__E                               
c305b0a0  ti_sysbios_family_c64p_Hwi_getHandle__E                             
c305b0c0  ti_sysbios_family_c64p_Hwi_startup__E                               
c305b0c0  ti_sysbios_hal_Hwi_HwiProxy_startup__E                              
c305b0c0  ti_sysbios_hal_Hwi_startup__E                                       
c305b0e0  ti_sysbios_family_c64p_Hwi_switchFromBootStack__E                   
c305b0e0  ti_sysbios_hal_Hwi_HwiProxy_switchFromBootStack__E                  
c305b0e0  ti_sysbios_hal_Hwi_switchFromBootStack__E                           
c305b100  ti_sysbios_family_c64p_Hwi_unPluggedInterrupt__I                    
c305b120  ti_sysbios_family_c64p_TimestampProvider_Module_startup__E          
c305b140  ti_sysbios_family_c64p_TimestampProvider_get64__E                   
c305b140  xdc_runtime_LoggerBuf_TimestampProxy_get64__E                       
c305b140  xdc_runtime_Timestamp_SupportProxy_get64__E                         
c305b140  xdc_runtime_Timestamp_get64__E                                      
c305b160  ti_sysbios_gates_GateHwi_Instance_init__E                           
c305b180  ti_sysbios_gates_GateHwi_enter__E                                   
c305b1a0  ti_sysbios_gates_GateHwi_leave__E                                   
c305b1c0  ti_sysbios_gates_GateHwi_query__E                                   
c305b1c0  xdc_runtime_LoggerBuf_Module_GateProxy_query__E                     
c305b1c0  xdc_runtime_Main_Module_GateProxy_query__E                          
c305b1c0  xdc_runtime_System_Module_GateProxy_query__E                        
c305b1e0  ti_sysbios_gates_GateMutex_Instance_finalize__E                     
c305b200  ti_sysbios_BIOS_RtsGateProxy_query__E                               
c305b200  ti_sysbios_gates_GateMutex_query__E                                 
c305b200  ti_sysbios_heaps_HeapMem_Module_GateProxy_query__E                  
c305b220  ti_sysbios_hal_Hwi_Module_startup__E                                
c305b240  ti_sysbios_heaps_HeapMem_Module_GateProxy_enter__E                  
c305b260  ti_sysbios_heaps_HeapMem_Module_GateProxy_leave__E                  
c305b280  ti_sysbios_heaps_HeapMem_isBlocking__E                              
c305b2a0  ti_sysbios_io_DEV_Object__get__S                                    
c305b2c0  ti_sysbios_knl_Clock_TimerProxy_getMaxTicks__E                      
c305b2e0  ti_sysbios_knl_Idle_loop__E                                         
c305b300  ti_sysbios_knl_Queue_Instance_init__E                               
c305b320  ti_sysbios_knl_Queue_Object__get__S                                 
c305b340  ti_sysbios_knl_Queue_destruct                                       
c305b360  ti_sysbios_knl_Queue_empty__E                                       
c305b380  ti_sysbios_knl_Semaphore_Instance_finalize__E                       
c305b3a0  ti_sysbios_knl_Semaphore_Params__init__S                            
c305b3c0  ti_sysbios_knl_Swi_disable__E                                       
c305b3e0  ti_sysbios_knl_Task_disable__E                                      
c305b400  ti_sysbios_knl_Task_startup__E                                      
c305b420  ti_sysbios_knl_Clock_TimerProxy_Module__startupDone__S              
c305b420  ti_sysbios_timers_timer64_Timer_Module__startupDone__F              
c305b420  ti_sysbios_timers_timer64_Timer_Module__startupDone__S              
c305b440  ti_sysbios_timers_timer64_Timer_getMaxTicks__E                      
c305b460  xdc_runtime_Error_getSite__E                                        
c305b480  xdc_runtime_Error_raiseX__E                                         
c305b4a0  xdc_runtime_Gate_enterSystem__E                                     
c305b4c0  xdc_runtime_Gate_leaveSystem__E                                     
c305b4e0  xdc_runtime_Memory_HeapProxy_alloc__E                               
c305b500  xdc_runtime_Memory_HeapProxy_free__E                                
c305b520  xdc_runtime_LoggerBuf_Module_GateProxy_enter__E                     
c305b540  xdc_runtime_LoggerBuf_Module_GateProxy_leave__E                     
c305b560  xdc_runtime_LoggerBuf_disable__E                                    
c305b580  xdc_runtime_LoggerBuf_enable__E                                     
c305b5a0  xdc_runtime_Memory_calloc__E                                        
c305b5c0  xdc_runtime_Memory_free__E                                          
c305b5e0  xdc_runtime_Memory_getMaxDefaultTypeAlign__E                        
c305b600  xdc_runtime_Startup_exec__I                                         
c305b620  xdc_runtime_Startup_reset__I                                        
c305b640  xdc_runtime_Startup_rtsDone__E                                      
c305b660  xdc_runtime_SysMin_ready__E                                         
c305b660  xdc_runtime_System_SupportProxy_ready__E                            
c305b680  xdc_runtime_System_Module_GateProxy_enter__E                        
c305b6a0  xdc_runtime_System_Module_GateProxy_leave__E                        
c305b6c0  xdc_runtime_System_Module_startup__E                                
c305b6e0  xdc_runtime_System_snprintf_va__E                                   
c305b6e0  xdc_runtime_System_snprintf_va__F                                   
c305b6e0  xdc_runtime_System_vsnprintf__E                                     
c305b700  xdc_runtime_Text_ropeText__E                                        
c305b720  xdc_runtime_Text_visitRope__I                                       
c305b740  _stack                                                              
c307b740  __TI_STACK_END                                                      
c307b740  drvObj                                                              
c307c5b8  drvInstance                                                         
c3080d98  edma3DrvChBoundRes                                                  
c3089678  resMgrObj                                                           
c3091010  userInstInitConfigArray                                             
c3092a50  resMgrInstanceArray                                                 
c30966f0  edma3GblCfgParams                                                   
c3097528  defInstInitConfig                                                   
c3098d88  sampleInstInitConfig                                                
c3099808  sampleEdma3GblCfgParams                                             
c309a2b8  ti_sysbios_family_c64p_EventCombiner_Module__state__V               
c309a6b8  _ftable                                                             
c309a898  mcasp_chanparam                                                     
c309a988  uartInitCfg                                                         
c309aa78  _stream                                                             
c309ab18  ti_sysbios_knl_Task_Object__table__V                                
c309abb0  ti_sysbios_knl_Swi_Module_State_0_readyQ__A                         
c309ac30  ti_sysbios_knl_Task_Module_State_0_readyQ__A                        
c309acb0  _device                                                             
c309ad28  ti_sysbios_family_c64p_Hwi_Object__table__V                         
c309ada0  ti_sysbios_family_c64p_Hwi_Module__state__V                         
c309ae2c  edma3NumPaRAMSets                                                   
c309ae72  xdc_runtime_LoggerBuf_Module__state__V                              
c309ae78  ti_sysbios_timers_timer64_Timer_Module_State_0_device__A            
c309aed8  ti_sysbios_timers_timer64_Timer_Object__table__V                    
c309af28  i2cInitCfg                                                          
c309af70  ti_sysbios_knl_Task_Module__state__V                                
c309afb4  _lock                                                               
c309afb8  ccXferCompInt                                                       
c309aff8  hwIntTcErr                                                          
c309b038  tcErrorInt                                                          
c309b078  ti_sysbios_gates_GateMutex_Object__table__V                         
c309b0b8  ti_sysbios_family_c64p_Exception_Module__state__V                   
c309b0e8  ti_sysbios_heaps_HeapMem_Object__table__V                           
c309b118  ti_sysbios_knl_Swi_Object__table__V                                 
c309b148  gOsal_HwAttrs                                                       
c309b174  ti_sysbios_knl_Clock_Module__state__V                               
c309b1a0  mcaspRcvSetup                                                       
c309b1c8  mcaspXmtSetup                                                       
c309b1f0  ti_sysbios_BIOS_Module__state__V                                    
c309b214  _unlock                                                             
c309b218  xdc_runtime_LoggerBuf_Object__table__V                              
c309b23c  __TI_ft_end                                                         
c309b240  ptrEdma3TcIsrHandler                                                
c309b260  ti_sysbios_io_DEV_Module_State_0_table__A                           
c309b280  ti_sysbios_timers_timer64_Timer_Module_State_0_gctrl__A             
c309b2a0  ti_sysbios_timers_timer64_Timer_Module_State_0_handles__A           
c309b2c0  ti_sysbios_timers_timer64_Timer_Module_State_0_intFreqs__A          
c309b2e0  xdc_runtime_Error_IgnoreBlock                                       
c309b300  xdc_runtime_System_Module_State_0_atexitHandlers__A                 
c309b320  ti_sysbios_knl_Swi_Module__state__V                                 
c309b33c  ti_sysbios_timers_timer64_Timer_Module__state__V                    
c309b354  AIC31_con8000                                                       
c309b364  __TI_cleanup_ptr                                                    
c309b368  __TI_dtors_ptr                                                      
c309b36c  __TI_enable_exit_profile_output                                     
c309b370  xdc_runtime_SysMin_Module__state__V                                 
c309b37c  Mcasp_module                                                        
c309b384  ti_sysbios_family_c64p_Cache_Module__state__V                       
c309b388  ccErrorInt                                                          
c309b390  hwIntCcErr                                                          
c309b398  hwIntXferComp                                                       
c309b3a0  numEdma3Tc                                                          
c309b3a8  semHandle                                                           
c309b3b0  ti_sysbios_family_c64p_Hwi_Module__root__V                          
c309b3b8  ti_sysbios_family_c64p_primus_TimerSupport_Module_State_0_suspSrc__A
c309b3c0  ti_sysbios_gates_GateHwi_Module__root__V                            
c309b3c8  ti_sysbios_gates_GateMutex_Module__root__V                          
c309b3d0  ti_sysbios_hal_Hwi_Object__table__V                                 
c309b3d8  ti_sysbios_heaps_HeapMem_Module__root__V                            
c309b3e0  ti_sysbios_knl_Queue_Module__root__V                                
c309b3e8  ti_sysbios_knl_Semaphore_Module__root__V                            
c309b3f0  xdc_runtime_LoggerBuf_Module__root__V                               
c309b3f8  xdc_runtime_Registry_Module__state__V                               
c309b400  xdc_runtime_Startup_Module__state__V                                
c309b408  xdc_runtime_System_Module__state__V                                 
c309b410  ti_sysbios_family_c64p_primus_TimerSupport_Module__state__V         
c309b414  ti_sysbios_io_DEV_Module__state__V                                  
c309b418  ti_sysbios_gates_GateHwi_Object__table__V                           
c309b41c  xdc_runtime_Memory_Module__state__V                                 
c309b420  ti_sysbios_knl_Task_Module_State_0_idleTask__A                      
c309b426  xdc_runtime_Error_Module__state__V                                  
c309b428  xdc_runtime_Text_charTab__A                                         
c309cd77  ti_sysbios_timers_timer64_Timer_localTimerBaseId__C                 
c309db50  xdc_runtime_Text_nodeTab__A                                         
c309dc64  Mcasp_PARAMS                                                        
c309ddc8  I2C_config                                                          
c309e048  UART_defaultParams                                                  
c309e088  xdc_runtime_LoggerBuf_Module__FXNS__C                               
c309e0c8  xdc_runtime_Startup_sfxnTab__A                                      
c309e100  UART_FxnTable_v0                                                    
c309e130  UART_config                                                         
c309e160  ti_sysbios_family_c64p_Hwi_Object__PARAMS__C                        
c309e1bc  I2C_defaultTransaction                                              
c309e1e4  ti_sysbios_heaps_HeapMem_Module__FXNS__C                            
c309e20c  xdc_runtime_LoggerBuf_Object__PARAMS__C                             
c309e258  Aic31_PARAMS                                                        
c309e27c  ti_sysbios_gates_GateHwi_Module__FXNS__C                            
c309e2a0  ti_sysbios_gates_GateMutex_Module__FXNS__C                          
c309e2c4  ti_sysbios_heaps_HeapMem_Object__PARAMS__C                          
c309e2e8  ti_sysbios_knl_Semaphore_Object__PARAMS__C                          
c309e3cc  ti_sysbios_family_c64p_Hwi_Object__DESC__C                          
c309e3ec  ti_sysbios_gates_GateHwi_Object__DESC__C                            
c309e40c  ti_sysbios_gates_GateMutex_Object__DESC__C                          
c309e42c  ti_sysbios_heaps_HeapMem_Object__DESC__C                            
c309e44c  ti_sysbios_knl_Queue_Object__DESC__C                                
c309e46c  ti_sysbios_knl_Semaphore_Object__DESC__C                            
c309e48c  xdc_runtime_LoggerBuf_Object__DESC__C                               
c309e4e4  ti_sysbios_family_c64p_Cache_EMIFA_BASE__C                          
c309e4e8  xdc_runtime_Startup_sfxnRts__A                                      
c309e51c  ti_sysbios_gates_GateHwi_Object__PARAMS__C                          
c309e534  ti_sysbios_gates_GateMutex_Object__PARAMS__C                        
c309e54c  ti_sysbios_knl_Queue_Object__PARAMS__C                              
c309e58c  I2C_v0_FxnTable                                                     
c309e5d0  I2C_defaultParams                                                   
c309e5e0  ti_sysbios_family_c64p_EventCombiner_EVTMASK__C                     
c309e5fa  ti_sysbios_family_c64p_Cache_Module__id__C                          
c309e5fc  ti_sysbios_knl_Idle_funcList__C                                     
c309e604  ti_sysbios_family_c64p_Cache_EMIFA_CFG__C                           
c309e608  xdc_runtime_Startup_firstFxns__A                                    
c309e610  xdc_runtime_Startup_firstFxns__C                                    
c309e618  xdc_runtime_Startup_lastFxns__C                                     
c309e620  ti_sysbios_family_c64p_Cache_EMIFA_LENGTH__C                        
c309e624  ti_sysbios_family_c64p_Cache_EMIFB_BASE__C                          
c309e628  ti_sysbios_family_c64p_Cache_EMIFB_CFG__C                           
c309e62c  ti_sysbios_family_c64p_Cache_EMIFB_LENGTH__C                        
c309e630  ti_sysbios_family_c64p_Cache_EMIFC_BASE__C                          
c309e634  ti_sysbios_family_c64p_Cache_EMIFC_CFG__C                           
c309e638  ti_sysbios_family_c64p_Cache_EMIFC_LENGTH__C                        
c309e63c  ti_sysbios_family_c64p_Cache_E_invalidL1CacheSize__C                
c309e640  ti_sysbios_family_c64p_Cache_E_invalidL2CacheSize__C                
c309e644  ti_sysbios_family_c64p_Cache_MAR0_31__C                             
c309e648  ti_sysbios_family_c64p_Cache_MAR128_159__C                          
c309e64c  ti_sysbios_family_c64p_Cache_MAR160_191__C                          
c309e650  ti_sysbios_family_c64p_Cache_MAR192_223__C                          
c309e654  ti_sysbios_family_c64p_Cache_MAR224_255__C                          
c309e658  ti_sysbios_family_c64p_Cache_MAR32_63__C                            
c309e65c  ti_sysbios_family_c64p_Cache_MAR64_95__C                            
c309e660  ti_sysbios_family_c64p_Cache_MAR96_127__C                           
c309e664  ti_sysbios_family_c64p_EventCombiner_A_invalidEventId__C            
c309e668  ti_sysbios_family_c64p_EventCombiner_E_unpluggedEvent__C            
c309e66c  ti_sysbios_family_c64p_EventCombiner_Module__diagsEnabled__C        
c309e670  ti_sysbios_family_c64p_EventCombiner_Module__diagsIncluded__C       
c309e674  ti_sysbios_family_c64p_EventCombiner_Module__diagsMask__C           
c309e678  ti_sysbios_family_c64p_Exception_E_exceptionMax__C                  
c309e67c  ti_sysbios_family_c64p_Exception_exceptionHook__C                   
c309e680  ti_sysbios_family_c64p_Exception_externalHook__C                    
c309e684  ti_sysbios_family_c64p_Exception_internalHook__C                    
c309e688  ti_sysbios_family_c64p_Exception_nmiHook__C                         
c309e68c  ti_sysbios_family_c64p_Hwi_E_alreadyDefined__C                      
c309e690  ti_sysbios_family_c64p_Hwi_E_handleNotFound__C                      
c309e694  ti_sysbios_family_c64p_Hwi_E_invalidIntNum__C                       
c309e698  ti_sysbios_family_c64p_Hwi_LD_end__C                                
c309e69c  ti_sysbios_family_c64p_Hwi_LM_begin__C                              
c309e6a0  ti_sysbios_family_c64p_Hwi_Module__diagsEnabled__C                  
c309e6a4  ti_sysbios_family_c64p_Hwi_Module__diagsIncluded__C                 
c309e6a8  ti_sysbios_family_c64p_Hwi_Module__diagsMask__C                     
c309e6ac  ti_sysbios_family_c64p_Hwi_Module__loggerFxn1__C                    
c309e6b0  ti_sysbios_family_c64p_Hwi_Module__loggerFxn8__C                    
c309e6b4  ti_sysbios_family_c64p_Hwi_Module__loggerObj__C                     
c309e6b8  ti_sysbios_gates_GateMutex_A_badContext__C                          
c309e6bc  ti_sysbios_gates_GateMutex_Instance_State_sem__O                    
c309e6c0  ti_sysbios_gates_GateMutex_Module__diagsEnabled__C                  
c309e6c4  ti_sysbios_gates_GateMutex_Module__diagsIncluded__C                 
c309e6c8  ti_sysbios_gates_GateMutex_Module__diagsMask__C                     
c309e6cc  ti_sysbios_hal_Hwi_E_stackOverflow__C                               
c309e6d0  ti_sysbios_heaps_HeapMem_A_align__C                                 
c309e6d4  ti_sysbios_heaps_HeapMem_A_heapSize__C                              
c309e6d8  ti_sysbios_heaps_HeapMem_A_invalidFree__C                           
c309e6dc  ti_sysbios_heaps_HeapMem_A_zeroBlock__C                             
c309e6e0  ti_sysbios_heaps_HeapMem_E_memory__C                                
c309e6e4  ti_sysbios_heaps_HeapMem_Module__diagsEnabled__C                    
c309e6e8  ti_sysbios_heaps_HeapMem_Module__diagsIncluded__C                   
c309e6ec  ti_sysbios_heaps_HeapMem_Module__diagsMask__C                       
c309e6f0  ti_sysbios_heaps_HeapMem_Module__gateObj__C                         
c309e6f4  ti_sysbios_heaps_HeapMem_Object__count__C                           
c309e6f8  ti_sysbios_heaps_HeapMem_reqAlign__C                                
c309e6fc  ti_sysbios_io_DEV_Object__count__C                                  
c309e700  ti_sysbios_io_DEV_tableSize__C                                      
c309e704  ti_sysbios_knl_Clock_LM_begin__C                                    
c309e708  ti_sysbios_knl_Clock_LM_tick__C                                     
c309e70c  ti_sysbios_knl_Clock_LW_delayed__C                                  
c309e710  ti_sysbios_knl_Clock_Module_State_clockQ__O                         
c309e714  ti_sysbios_knl_Clock_Module__diagsEnabled__C                        
c309e718  ti_sysbios_knl_Clock_Module__diagsIncluded__C                       
c309e71c  ti_sysbios_knl_Clock_Module__diagsMask__C                           
c309e720  ti_sysbios_knl_Clock_Module__loggerFxn1__C                          
c309e724  ti_sysbios_knl_Clock_Module__loggerFxn2__C                          
c309e728  ti_sysbios_knl_Clock_Module__loggerObj__C                           
c309e72c  ti_sysbios_knl_Semaphore_A_badContext__C                            
c309e730  ti_sysbios_knl_Idle_funcList__A                                     
c309e734  ti_sysbios_knl_Semaphore_A_noEvents__C                              
c309e738  ti_sysbios_knl_Semaphore_A_overflow__C                              
c309e73c  ti_sysbios_knl_Semaphore_A_pendTaskDisabled__C                      
c309e740  ti_sysbios_knl_Semaphore_Instance_State_pendQ__O                    
c309e744  ti_sysbios_knl_Semaphore_LM_pend__C                                 
c309e748  ti_sysbios_knl_Semaphore_LM_post__C                                 
c309e74c  ti_sysbios_knl_Semaphore_Module__diagsEnabled__C                    
c309e750  ti_sysbios_knl_Semaphore_Module__diagsIncluded__C                   
c309e754  ti_sysbios_knl_Semaphore_Module__diagsMask__C                       
c309e758  ti_sysbios_knl_Semaphore_Module__loggerFxn2__C                      
c309e75c  ti_sysbios_knl_Semaphore_Module__loggerFxn4__C                      
c309e760  ti_sysbios_knl_Semaphore_Module__loggerObj__C                       
c309e764  ti_sysbios_knl_Swi_LD_end__C                                        
c309e768  ti_sysbios_knl_Swi_LM_begin__C                                      
c309e76c  ti_sysbios_knl_Swi_LM_post__C                                       
c309e770  ti_sysbios_knl_Swi_Module__diagsEnabled__C                          
c309e774  ti_sysbios_knl_Swi_Module__diagsIncluded__C                         
c309e778  ti_sysbios_knl_Swi_Module__diagsMask__C                             
c309e77c  ti_sysbios_knl_Swi_Module__loggerFxn1__C                            
c309e780  ti_sysbios_knl_Swi_Module__loggerFxn4__C                            
c309e784  ti_sysbios_knl_Swi_Module__loggerObj__C                             
c309e788  ti_sysbios_knl_Swi_Object__count__C                                 
c309e78c  ti_sysbios_knl_Task_A_badTimeout__C                                 
c309e790  ti_sysbios_knl_Task_A_sleepTaskDisabled__C                          
c309e794  ti_sysbios_knl_Task_LD_block__C                                     
c309e798  ti_sysbios_knl_Task_LD_exit__C                                      
c309e79c  ti_sysbios_knl_Task_LD_ready__C                                     
c309e7a0  ti_sysbios_knl_Task_LM_sleep__C                                     
c309e7a4  ti_sysbios_knl_Task_LM_switch__C                                    
c309e7a8  ti_sysbios_knl_Task_Module_State_inactiveQ__O                       
c309e7ac  ti_sysbios_knl_Task_Module__diagsEnabled__C                         
c309e7b0  ti_sysbios_knl_Task_Module__diagsIncluded__C                        
c309e7b4  ti_sysbios_knl_Task_Module__diagsMask__C                            
c309e7b8  ti_sysbios_knl_Task_Module__loggerFxn2__C                           
c309e7bc  ti_sysbios_knl_Task_Module__loggerFxn4__C                           
c309e7c0  ti_sysbios_knl_Task_Module__loggerObj__C                            
c309e7c4  ti_sysbios_knl_Task_Object__count__C                                
c309e7c8  ti_sysbios_knl_Task_allBlockedFunc__C                               
c309e7cc  ti_sysbios_knl_Task_numConstructedTasks__C                          
c309e7d0  ti_sysbios_timers_timer64_Timer_A_notAvailable__C                   
c309e7d4  ti_sysbios_timers_timer64_Timer_E_cannotSupport__C                  
c309e7d8  ti_sysbios_timers_timer64_Timer_Module__diagsEnabled__C             
c309e7dc  ti_sysbios_timers_timer64_Timer_Module__diagsIncluded__C            
c309e7e0  ti_sysbios_timers_timer64_Timer_Module__diagsMask__C                
c309e7e4  ti_sysbios_timers_timer64_Timer_anyMaskHigh__C                      
c309e7e8  ti_sysbios_timers_timer64_Timer_anyMask__C                          
c309e7ec  ti_sysbios_timers_timer64_Timer_freqDivisor__C                      
c309e7f0  ti_sysbios_timers_timer64_Timer_numLocalTimers__C                   
c309e7f4  ti_sysbios_timers_timer64_Timer_numTimerDevices__C                  
c309e7f8  xdc_runtime_Assert_E_assertFailed__C                                
c309e7fc  xdc_runtime_Core_A_initializedParams__C                             
c309e800  xdc_runtime_Core_Module__diagsEnabled__C                            
c309e804  xdc_runtime_Core_Module__diagsIncluded__C                           
c309e808  xdc_runtime_Core_Module__diagsMask__C                               
c309e80c  xdc_runtime_Error_E_generic__C                                      
c309e810  xdc_runtime_Error_E_memory__C                                       
c309e814  xdc_runtime_Error_Module__diagsEnabled__C                           
c309e818  xdc_runtime_Error_Module__diagsIncluded__C                          
c309e81c  xdc_runtime_Error_Module__diagsMask__C                              
c309e820  xdc_runtime_Error_Module__loggerFxn8__C                             
c309e824  xdc_runtime_Error_Module__loggerObj__C                              
c309e828  xdc_runtime_Error_policyFxn__C                                      
c309e82c  xdc_runtime_Error_policy__C                                         
c309e830  xdc_runtime_Error_raiseHook__C                                      
c309e834  xdc_runtime_IFilterLogger_Interface__BASE__C                        
c309e838  xdc_runtime_IGateProvider_Interface__BASE__C                        
c309e83c  xdc_runtime_IHeap_Interface__BASE__C                                
c309e840  xdc_runtime_ILogger_Interface__BASE__C                              
c309e844  xdc_runtime_IModule_Interface__BASE__C                              
c309e848  xdc_runtime_Log_L_error__C                                          
c309e84c  xdc_runtime_Log_L_info__C                                           
c309e850  xdc_runtime_LoggerBuf_E_badLevel__C                                 
c309e854  xdc_runtime_LoggerBuf_Module__gateObj__C                            
c309e858  xdc_runtime_LoggerBuf_Object__count__C                              
c309e85c  xdc_runtime_LoggerBuf_statusLogger__C                               
c309e860  xdc_runtime_Main_Module__diagsEnabled__C                            
c309e864  xdc_runtime_Main_Module__diagsIncluded__C                           
c309e868  xdc_runtime_Main_Module__diagsMask__C                               
c309e86c  xdc_runtime_Main_Module__loggerFxn4__C                              
c309e870  xdc_runtime_Main_Module__loggerObj__C                               
c309e874  xdc_runtime_Memory_defaultHeapInstance__C                           
c309e878  xdc_runtime_Startup_execImpl__C                                     
c309e87c  xdc_runtime_Startup_maxPasses__C                                    
c309e880  xdc_runtime_Startup_sfxnRts__C                                      
c309e884  xdc_runtime_Startup_sfxnTab__C                                      
c309e888  xdc_runtime_SysMin_bufSize__C                                       
c309e88c  xdc_runtime_SysMin_outputFunc__C                                    
c309e890  xdc_runtime_System_Module__gateObj__C                               
c309e894  xdc_runtime_System_abortFxn__C                                      
c309e898  xdc_runtime_System_exitFxn__C                                       
c309e89c  xdc_runtime_System_extendFxn__C                                     
c309e8a0  xdc_runtime_System_maxAtexitHandlers__C                             
c309e8a4  xdc_runtime_Text_charTab__C                                         
c309e8a8  xdc_runtime_Text_nameEmpty__C                                       
c309e8ac  xdc_runtime_Text_nameStatic__C                                      
c309e8b0  xdc_runtime_Text_nameUnknown__C                                     
c309e8b4  xdc_runtime_Text_nodeTab__C                                         
c309e8b8  xdc_runtime_Text_visitRopeFxn__C                                    
c309e8bc  ti_sysbios_family_c64p_EventCombiner_Module__id__C                  
c309e8be  ti_sysbios_family_c64p_Exception_Module__id__C                      
c309e8c0  ti_sysbios_family_c64p_Exception_useInternalBuffer__C               
c309e8c2  ti_sysbios_family_c64p_Hwi_Module__id__C                            
c309e8c4  ti_sysbios_family_c64p_Hwi_Module__loggerDefined__C                 
c309e8c6  ti_sysbios_gates_GateMutex_Module__id__C                            
c309e8c8  ti_sysbios_hal_Hwi_Module__id__C                                    
c309e8ca  ti_sysbios_heaps_HeapMem_Module__id__C                              
c309e8cc  ti_sysbios_io_DEV_Module__id__C                                     
c309e8ce  ti_sysbios_knl_Clock_Module__id__C                                  
c309e8d0  ti_sysbios_knl_Clock_Module__loggerDefined__C                       
c309e8d2  ti_sysbios_knl_Semaphore_Module__id__C                              
c309e8d4  ti_sysbios_knl_Semaphore_Module__loggerDefined__C                   
c309e8d6  ti_sysbios_knl_Swi_Module__id__C                                    
c309e8d8  ti_sysbios_knl_Swi_Module__loggerDefined__C                         
c309e8da  ti_sysbios_knl_Task_Module__id__C                                   
c309e8dc  ti_sysbios_knl_Task_Module__loggerDefined__C                        
c309e8de  ti_sysbios_timers_timer64_Timer_Module__id__C                       
c309e8e0  ti_sysbios_timers_timer64_Timer_startupNeeded__C                    
c309e8e2  ti_sysbios_timers_timer64_Timer_useTimer64pRegMap__C                
c309e8e4  xdc_runtime_Core_Module__id__C                                      
c309e8e6  xdc_runtime_Error_Module__loggerDefined__C                          
c309e8e8  xdc_runtime_Error_maxDepth__C                                       
c309e8ea  xdc_runtime_LoggerBuf_Module__id__C                                 
c309e8ec  xdc_runtime_LoggerBuf_filterByLevel__C                              
c309e8ee  xdc_runtime_Main_Module__id__C                                      
c309e8f0  xdc_runtime_Main_Module__loggerDefined__C                           
c309e8f2  xdc_runtime_Memory_Module__id__C                                    
c309e8f4  xdc_runtime_SysMin_flushAtExit__C                                   
c309e8f6  xdc_runtime_Text_charCnt__C                                         
c309e8f8  xdc_runtime_Text_isLoaded__C                                        
c309e8fa  xdc_runtime_Text_registryModsLastId__C                              
c309e8fc  xdc_runtime_Text_unnamedModsLastId__C                               
c309ea98  __CIOBUF_                                                           
c309ec00  ti_sysbios_family_c64p_Hwi0                                         
c309ec00  ti_sysbios_family_c64p_Hwi_int0                                     
c309ec20  ti_sysbios_family_c64p_Hwi_int1                                     
c309ec40  ti_sysbios_family_c64p_Hwi_int2                                     
c309ec60  ti_sysbios_family_c64p_Hwi_int3                                     
c309ec80  ti_sysbios_family_c64p_Hwi_int4                                     
c309eca0  ti_sysbios_family_c64p_Hwi_int5                                     
c309ecc0  ti_sysbios_family_c64p_Hwi_int6                                     
c309ece0  ti_sysbios_family_c64p_Hwi_int7                                     
c309ed00  ti_sysbios_family_c64p_Hwi_int8                                     
c309ed20  ti_sysbios_family_c64p_Hwi_int9                                     
c309ed40  ti_sysbios_family_c64p_Hwi_int10                                    
c309ed60  ti_sysbios_family_c64p_Hwi_int11                                    
c309ed80  ti_sysbios_family_c64p_Hwi_int12                                    
c309eda0  ti_sysbios_family_c64p_Hwi_int13                                    
c309edc0  ti_sysbios_family_c64p_Hwi_int14                                    
c309ede0  ti_sysbios_family_c64p_Hwi_int15                                    
c309ee00  __TI_STATIC_BASE                                                    
c309ee00  dsp_num                                                             
c309ee04  hAicChannel                                                         
c309ee08  hAicDev                                                             
c309ee0c  hEdma                                                               
c309ee10  hMcaspDev                                                           
c309ee14  hMcaspRxChan                                                        
c309ee18  hMcaspTxChan                                                        
c309ee1c  region_id                                                           
c309ee20  semR                                                                
c309ee24  semT                                                                
c309ee28  rxFrameIndex                                                        
c309ee2c  txFrameIndex                                                        
c309ee30  RxFlag                                                              
c309ee34  TxFlag                                                              
c309ee38  mcaspApiTest                                                        
c309ee3c  gblErrFlagXmt                                                       
c309ee40  gblErrFlagRcv                                                       
c309ee44  gtxFrameIndexCount                                                  
c309ee48  grxFrameIndexCount                                                  
c309ee4c  total_frames_sent                                                   
c309ee50  gOsalSemAllocCnt                                                    
c309ee54  gOsalSemPeak                                                        
c309ee58  gOsalTimerAllocCnt                                                  
c309ee5c  gOsalTimerPeak                                                      
c309ee60  gOsalHwiAllocCnt                                                    
c309ee64  gOsalHwiPeak                                                        
c309ee68  dataIdx                                                             
c309ee6c  txCompFlag                                                          
c309ee70  I2C_handle_glob                                                     
c309ee74  I2C_slaveAddr                                                       
c309ee80  inCount                                                             
c309ee84  outCount                                                            
c309ee90  myHeap                                                              
c309ee94  task0                                                               
c309ee98  numEdma3Instances                                                   
c309ee9c  numDsps                                                             
c309eea0  EDMA3_MAX_RM_INSTANCES                                              
c30a02c8  __TI_Handler_Table_Base                                             
c30a02d0  __TI_CINIT_Base                                                     
c30a02d0  __TI_Handler_Table_Limit                                            
c30a0300  __TI_CINIT_Limit                                                    
ffffffff  __TI_pprof_out_hndl                                                 
ffffffff  __TI_prof_data_size                                                 
ffffffff  __TI_prof_data_start                                                
ffffffff  __binit__                                                           
ffffffff  __c_args__                                                          
ffffffff  binit                                                               
UNDEFED   __TI_INITARRAY_Base                                                 
UNDEFED   __TI_INITARRAY_Limit                                                
UNDEFED   __TI_TLS_INIT_Base                                                  
UNDEFED   __TI_TLS_INIT_Limit                                                 

[1067 symbols]
